   1               		.file	"effect.c"
   2               	__SREG__ = 0x3f
   3               	__SP_H__ = 0x3e
   4               	__SP_L__ = 0x3d
   5               	__CCP__  = 0x34
   6               	__tmp_reg__ = 0
   7               	__zero_reg__ = 1
  15               	.Ltext0:
  16               	.global	effect_loadbar
  18               	effect_loadbar:
  19               	.LFB17:
  20               	.LM1:
  21               	.LVL0:
  22 0000 DF92      		push r13
  23 0002 EF92      		push r14
  24 0004 FF92      		push r15
  25 0006 0F93      		push r16
  26 0008 1F93      		push r17
  27 000a CF93      		push r28
  28 000c DF93      		push r29
  29               	/* prologue: function */
  30               	/* frame size = 0 */
  31 000e 8C01      		movw r16,r24
  32               	.LM2:
  33 0010 80E0      		ldi r24,lo8(0)
  34               	.LVL1:
  35 0012 0E94 0000 		call fill
  36 0016 C0E0      		ldi r28,lo8(0)
  37 0018 D0E0      		ldi r29,hi8(0)
  38               	.LVL2:
  39               	.LM3:
  40 001a DD24      		clr r13
  41 001c DA94      		dec r13
  42               	.LM4:
  43 001e 7801      		movw r14,r16
  44               	.LVL3:
  45 0020 00C0      		rjmp .L2
  46               	.LVL4:
  47               	.L3:
  48               	.LM5:
  49 0022 F901      		movw r30,r18
  50 0024 E80F      		add r30,r24
  51 0026 F91F      		adc r31,r25
  52 0028 E050      		subi r30,lo8(-(cube))
  53 002a F040      		sbci r31,hi8(-(cube))
  54 002c D082      		st Z,r13
  55               	.LM6:
  56 002e 0196      		adiw r24,1
  57 0030 8830      		cpi r24,8
  58 0032 9105      		cpc r25,__zero_reg__
  59 0034 01F4      		brne .L3
  60               	.LM7:
  61 0036 C701      		movw r24,r14
  62               	.LVL5:
  63 0038 0E94 0000 		call delay_ms
  64               	.LM8:
  65 003c 2196      		adiw r28,1
  66 003e C830      		cpi r28,8
  67 0040 D105      		cpc r29,__zero_reg__
  68 0042 01F0      		breq .L4
  69               	.L2:
  70 0044 80E0      		ldi r24,lo8(0)
  71 0046 90E0      		ldi r25,hi8(0)
  72               	.LVL6:
  73               	.LM9:
  74 0048 9E01      		movw r18,r28
  75 004a 63E0      		ldi r22,3
  76 004c 220F      	1:	lsl r18
  77 004e 331F      		rol r19
  78 0050 6A95      		dec r22
  79 0052 01F4      		brne 1b
  80 0054 00C0      		rjmp .L3
  81               	.LVL7:
  82               	.L4:
  83               	.LM10:
  84 0056 C801      		movw r24,r16
  85               	.LVL8:
  86 0058 880F      		lsl r24
  87 005a 991F      		rol r25
  88 005c 800F      		add r24,r16
  89 005e 911F      		adc r25,r17
  90 0060 0E94 0000 		call delay_ms
  91 0064 C0E0      		ldi r28,lo8(0)
  92 0066 D0E0      		ldi r29,hi8(0)
  93               	.LVL9:
  94 0068 00C0      		rjmp .L5
  95               	.LVL10:
  96               	.L6:
  97               	.LM11:
  98 006a F901      		movw r30,r18
  99 006c E80F      		add r30,r24
 100 006e F91F      		adc r31,r25
 101 0070 E050      		subi r30,lo8(-(cube))
 102 0072 F040      		sbci r31,hi8(-(cube))
 103 0074 1082      		st Z,__zero_reg__
 104               	.LM12:
 105 0076 0196      		adiw r24,1
 106 0078 8830      		cpi r24,8
 107 007a 9105      		cpc r25,__zero_reg__
 108 007c 01F4      		brne .L6
 109               	.LM13:
 110 007e C701      		movw r24,r14
 111               	.LVL11:
 112 0080 0E94 0000 		call delay_ms
 113               	.LM14:
 114 0084 2196      		adiw r28,1
 115 0086 C830      		cpi r28,8
 116 0088 D105      		cpc r29,__zero_reg__
 117 008a 01F0      		breq .L8
 118               	.L5:
 119 008c 80E0      		ldi r24,lo8(0)
 120 008e 90E0      		ldi r25,hi8(0)
 121               	.LVL12:
 122               	.LM15:
 123 0090 9E01      		movw r18,r28
 124 0092 43E0      		ldi r20,3
 125 0094 220F      	1:	lsl r18
 126 0096 331F      		rol r19
 127 0098 4A95      		dec r20
 128 009a 01F4      		brne 1b
 129 009c 00C0      		rjmp .L6
 130               	.LVL13:
 131               	.L8:
 132               	/* epilogue start */
 133               	.LM16:
 134 009e DF91      		pop r29
 135 00a0 CF91      		pop r28
 136               	.LVL14:
 137 00a2 1F91      		pop r17
 138 00a4 0F91      		pop r16
 139               	.LVL15:
 140 00a6 FF90      		pop r15
 141 00a8 EF90      		pop r14
 142 00aa DF90      		pop r13
 143 00ac 0895      		ret
 144               	.LFE17:
 146               	.global	effect_telcstairs_do
 148               	effect_telcstairs_do:
 149               	.LFB15:
 150               	.LM17:
 151               	.LVL16:
 152 00ae CF93      		push r28
 153 00b0 DF93      		push r29
 154               	/* prologue: function */
 155               	/* frame size = 0 */
 156 00b2 EC01      		movw r28,r24
 157               	.LM18:
 158 00b4 DC01      		movw r26,r24
 159 00b6 20E0      		ldi r18,lo8(0)
 160 00b8 30E0      		ldi r19,hi8(0)
 161               	.LVL17:
 162 00ba 00C0      		rjmp .L12
 163               	.LVL18:
 164               	.L14:
 165               	.LM19:
 166 00bc A830      		cpi r26,8
 167 00be B105      		cpc r27,__zero_reg__
 168 00c0 04F4      		brge .L13
 169               	.LVL19:
 170 00c2 2830      		cpi r18,8
 171 00c4 3105      		cpc r19,__zero_reg__
 172 00c6 04F4      		brge .L13
 173               	.LM20:
 174 00c8 FD01      		movw r30,r26
 175 00ca 73E0      		ldi r23,3
 176 00cc EE0F      	1:	lsl r30
 177 00ce FF1F      		rol r31
 178 00d0 7A95      		dec r23
 179 00d2 01F4      		brne 1b
 180 00d4 E20F      		add r30,r18
 181 00d6 F31F      		adc r31,r19
 182 00d8 E050      		subi r30,lo8(-(cube))
 183 00da F040      		sbci r31,hi8(-(cube))
 184 00dc 6083      		st Z,r22
 185               	.L13:
 186               	.LM21:
 187 00de 2F5F      		subi r18,lo8(-(1))
 188 00e0 3F4F      		sbci r19,hi8(-(1))
 189 00e2 1197      		sbiw r26,1
 190               	.LVL20:
 191               	.L12:
 192 00e4 C217      		cp r28,r18
 193 00e6 D307      		cpc r29,r19
 194 00e8 04F4      		brge .L14
 195               	.LVL21:
 196               	.LM22:
 197 00ea CA01      		movw r24,r20
 198 00ec 0E94 0000 		call delay_ms
 199               	.LVL22:
 200               	.LM23:
 201 00f0 CE01      		movw r24,r28
 202               	.LVL23:
 203               	/* epilogue start */
 204 00f2 DF91      		pop r29
 205 00f4 CF91      		pop r28
 206 00f6 0895      		ret
 207               	.LFE15:
 209               	.global	effect_telcstairs
 211               	effect_telcstairs:
 212               	.LFB16:
 213               	.LM24:
 214               	.LVL24:
 215 00f8 0F93      		push r16
 216 00fa 1F93      		push r17
 217 00fc CF93      		push r28
 218 00fe DF93      		push r29
 219               	/* prologue: function */
 220               	/* frame size = 0 */
 221 0100 8B01      		movw r16,r22
 222 0102 EA01      		movw r28,r20
 223               	.LM25:
 224 0104 892B      		or r24,r25
 225 0106 01F0      		breq .L17
 226               	.LVL25:
 227 0108 80E1      		ldi r24,lo8(16)
 228 010a 90E0      		ldi r25,hi8(16)
 229               	.LVL26:
 230               	.L18:
 231               	.LM26:
 232 010c BE01      		movw r22,r28
 233 010e A801      		movw r20,r16
 234 0110 0E94 0000 		call effect_telcstairs_do
 235               	.LVL27:
 236               	.LM27:
 237 0114 0197      		sbiw r24,1
 238               	.LVL28:
 239 0116 97FF      		sbrs r25,7
 240 0118 00C0      		rjmp .L18
 241 011a 00C0      		rjmp .L21
 242               	.LVL29:
 243               	.L17:
 244 011c 80E0      		ldi r24,lo8(0)
 245 011e 90E0      		ldi r25,hi8(0)
 246               	.LVL30:
 247               	.L20:
 248               	.LM28:
 249 0120 BE01      		movw r22,r28
 250 0122 A801      		movw r20,r16
 251 0124 0E94 0000 		call effect_telcstairs_do
 252               	.LVL31:
 253               	.LM29:
 254 0128 0196      		adiw r24,1
 255               	.LVL32:
 256 012a 8031      		cpi r24,16
 257 012c 9105      		cpc r25,__zero_reg__
 258 012e 04F0      		brlt .L20
 259               	.L21:
 260               	/* epilogue start */
 261               	.LM30:
 262 0130 DF91      		pop r29
 263 0132 CF91      		pop r28
 264               	.LVL33:
 265 0134 1F91      		pop r17
 266 0136 0F91      		pop r16
 267               	.LVL34:
 268 0138 0895      		ret
 269               	.LFE16:
 271               	.global	effect_blinky2
 273               	effect_blinky2:
 274               	.LFB11:
 275               	.LM31:
 276               	.LVL35:
 277 013a CF92      		push r12
 278 013c DF92      		push r13
 279 013e EF92      		push r14
 280 0140 FF92      		push r15
 281 0142 0F93      		push r16
 282 0144 1F93      		push r17
 283 0146 CF93      		push r28
 284 0148 DF93      		push r29
 285               	/* prologue: function */
 286               	/* frame size = 0 */
 287 014a EC01      		movw r28,r24
 288 014c 6B01      		movw r12,r22
 289 014e 7A01      		movw r14,r20
 290               	.LM32:
 291 0150 80E0      		ldi r24,lo8(0)
 292               	.LVL36:
 293 0152 0E94 0000 		call fill
 294               	.LVL37:
 295 0156 00E0      		ldi r16,lo8(0)
 296 0158 10E0      		ldi r17,hi8(0)
 297               	.LVL38:
 298 015a 00C0      		rjmp .L30
 299               	.L26:
 300               	.LM33:
 301 015c 80E0      		ldi r24,lo8(0)
 302 015e 0E94 0000 		call fill
 303               	.LM34:
 304 0162 CE01      		movw r24,r28
 305 0164 0E94 0000 		call delay_ms
 306               	.LM35:
 307 0168 8FEF      		ldi r24,lo8(-1)
 308 016a 0E94 0000 		call fill
 309               	.LM36:
 310 016e C601      		movw r24,r12
 311 0170 0E94 0000 		call delay_ms
 312               	.LM37:
 313 0174 CE01      		movw r24,r28
 314 0176 66EF      		ldi r22,lo8(-10)
 315 0178 7FEF      		ldi r23,hi8(-10)
 316 017a 0E94 0000 		call __divmodhi4
 317 017e 88EE      		ldi r24,lo8(1000)
 318 0180 93E0      		ldi r25,hi8(1000)
 319 0182 0E94 0000 		call __divmodhi4
 320 0186 6F50      		subi r22,lo8(-(-15))
 321 0188 7040      		sbci r23,hi8(-(-15))
 322 018a C60F      		add r28,r22
 323 018c D71F      		adc r29,r23
 324               	.L30:
 325               	.LM38:
 326 018e 1C16      		cp __zero_reg__,r28
 327 0190 1D06      		cpc __zero_reg__,r29
 328 0192 04F0      		brlt .L26
 329               	.LM39:
 330 0194 C701      		movw r24,r14
 331 0196 0E94 0000 		call delay_ms
 332               	.LM40:
 333 019a 0F5F      		subi r16,lo8(-(1))
 334 019c 1F4F      		sbci r17,hi8(-(1))
 335 019e 0230      		cpi r16,2
 336 01a0 1105      		cpc r17,__zero_reg__
 337 01a2 01F4      		brne .L30
 338               	/* epilogue start */
 339               	.LM41:
 340 01a4 DF91      		pop r29
 341 01a6 CF91      		pop r28
 342               	.LVL39:
 343 01a8 1F91      		pop r17
 344 01aa 0F91      		pop r16
 345               	.LVL40:
 346 01ac FF90      		pop r15
 347 01ae EF90      		pop r14
 348               	.LVL41:
 349 01b0 DF90      		pop r13
 350 01b2 CF90      		pop r12
 351               	.LVL42:
 352 01b4 0895      		ret
 353               	.LFE11:
 356               	drawSnake.2831:
 357               	.LFB38:
 358               	.LM42:
 359               	.LVL43:
 360 01b6 2F92      		push r2
 361 01b8 3F92      		push r3
 362 01ba EF92      		push r14
 363 01bc FF92      		push r15
 364 01be 0F93      		push r16
 365 01c0 1F93      		push r17
 366 01c2 CF93      		push r28
 367 01c4 DF93      		push r29
 368               	/* prologue: function */
 369               	/* frame size = 0 */
 370 01c6 7C01      		movw r14,r24
 371 01c8 8B01      		movw r16,r22
 372 01ca E101      		movw r28,r2
 373               	.LM43:
 374 01cc 80E0      		ldi r24,lo8(0)
 375               	.LVL44:
 376 01ce 0E94 0000 		call fill
 377               	.LVL45:
 378               	.LM44:
 379 01d2 C801      		movw r24,r16
 380 01d4 0E94 0000 		call delay_ms
 381               	.LM45:
 382 01d8 1D86      		std Y+13,__zero_reg__
 383 01da 1C86      		std Y+12,__zero_reg__
 384 01dc 00C0      		rjmp .L32
 385               	.L33:
 386               	.LM46:
 387 01de AA85      		ldd r26,Y+10
 388 01e0 BB85      		ldd r27,Y+11
 389 01e2 C901      		movw r24,r18
 390 01e4 880F      		lsl r24
 391 01e6 991F      		rol r25
 392               	.LVL46:
 393 01e8 8A0F      		add r24,r26
 394 01ea 9B1F      		adc r25,r27
 395 01ec 2F5F      		subi r18,lo8(-(1))
 396 01ee 3F4F      		sbci r19,hi8(-(1))
 397 01f0 F901      		movw r30,r18
 398 01f2 EE0F      		lsl r30
 399 01f4 FF1F      		rol r31
 400 01f6 EA0F      		add r30,r26
 401 01f8 FB1F      		adc r31,r27
 402 01fa 6081      		ld r22,Z
 403 01fc 7181      		ldd r23,Z+1
 404 01fe 2F5F      		subi r18,lo8(-(1))
 405 0200 3F4F      		sbci r19,hi8(-(1))
 406 0202 220F      		lsl r18
 407 0204 331F      		rol r19
 408 0206 A20F      		add r26,r18
 409 0208 B31F      		adc r27,r19
 410 020a 4D91      		ld r20,X+
 411 020c 5C91      		ld r21,X
 412 020e FC01      		movw r30,r24
 413 0210 8081      		ld r24,Z
 414 0212 9181      		ldd r25,Z+1
 415 0214 0E94 0000 		call setvoxel
 416               	.LM47:
 417 0218 8C85      		ldd r24,Y+12
 418 021a 9D85      		ldd r25,Y+13
 419 021c 0396      		adiw r24,3
 420 021e 9D87      		std Y+13,r25
 421 0220 8C87      		std Y+12,r24
 422               	.LVL47:
 423               	.L32:
 424 0222 2C85      		ldd r18,Y+12
 425 0224 3D85      		ldd r19,Y+13
 426 0226 8985      		ldd r24,Y+9
 427 0228 9927      		clr r25
 428 022a 87FD      		sbrc r24,7
 429 022c 9095      		com r25
 430 022e 2817      		cp r18,r24
 431 0230 3907      		cpc r19,r25
 432 0232 00F0      		brlo .L33
 433               	.LM48:
 434 0234 C701      		movw r24,r14
 435 0236 0E94 0000 		call delay_ms
 436               	/* epilogue start */
 437               	.LM49:
 438 023a DF91      		pop r29
 439 023c CF91      		pop r28
 440 023e 1F91      		pop r17
 441 0240 0F91      		pop r16
 442               	.LVL48:
 443 0242 FF90      		pop r15
 444 0244 EF90      		pop r14
 445               	.LVL49:
 446 0246 3F90      		pop r3
 447 0248 2F90      		pop r2
 448 024a 0895      		ret
 449               	.LFE38:
 452               	snakeFillAndMove.2840:
 453               	.LFB40:
 454               	.LM50:
 455               	.LVL50:
 456 024c 2F92      		push r2
 457 024e 3F92      		push r3
 458 0250 FF92      		push r15
 459 0252 0F93      		push r16
 460 0254 1F93      		push r17
 461 0256 CF93      		push r28
 462 0258 DF93      		push r29
 463               	/* prologue: function */
 464               	/* frame size = 0 */
 465 025a F82E      		mov r15,r24
 466 025c 8101      		movw r16,r2
 467               	.LM51:
 468 025e F101      		movw r30,r2
 469 0260 C285      		ldd r28,Z+10
 470 0262 D385      		ldd r29,Z+11
 471               	.LBB4:
 472               	.LM52:
 473 0264 8881      		ld r24,Y
 474 0266 9981      		ldd r25,Y+1
 475               	.LVL51:
 476 0268 6A81      		ldd r22,Y+2
 477 026a 7B81      		ldd r23,Y+3
 478 026c 4C81      		ldd r20,Y+4
 479 026e 5D81      		ldd r21,Y+5
 480 0270 0196      		adiw r24,1
 481 0272 0E94 0000 		call inrange
 482               	.LBB5:
 483 0276 8823      		tst r24
 484 0278 01F0      		breq .L36
 485               	.LBE5:
 486 027a 8881      		ld r24,Y
 487 027c 9981      		ldd r25,Y+1
 488 027e 6A81      		ldd r22,Y+2
 489 0280 7B81      		ldd r23,Y+3
 490 0282 4C81      		ldd r20,Y+4
 491 0284 5D81      		ldd r21,Y+5
 492 0286 0196      		adiw r24,1
 493 0288 0E94 0000 		call getvoxel
 494               	.LBB6:
 495 028c 8823      		tst r24
 496 028e 01F4      		brne .+2
 497 0290 00C0      		rjmp .L57
 498               	.L36:
 499               	.LBE6:
 500 0292 8881      		ld r24,Y
 501 0294 9981      		ldd r25,Y+1
 502 0296 6A81      		ldd r22,Y+2
 503 0298 7B81      		ldd r23,Y+3
 504 029a 4C81      		ldd r20,Y+4
 505 029c 5D81      		ldd r21,Y+5
 506 029e 0197      		sbiw r24,1
 507 02a0 0E94 0000 		call inrange
 508               	.LBB7:
 509 02a4 8823      		tst r24
 510 02a6 01F0      		breq .L38
 511               	.LBE7:
 512 02a8 8881      		ld r24,Y
 513 02aa 9981      		ldd r25,Y+1
 514 02ac 6A81      		ldd r22,Y+2
 515 02ae 7B81      		ldd r23,Y+3
 516 02b0 4C81      		ldd r20,Y+4
 517 02b2 5D81      		ldd r21,Y+5
 518 02b4 0197      		sbiw r24,1
 519 02b6 0E94 0000 		call getvoxel
 520               	.LBB8:
 521 02ba 8823      		tst r24
 522 02bc 01F4      		brne .+2
 523 02be 00C0      		rjmp .L57
 524               	.L38:
 525               	.LBE8:
 526 02c0 6A81      		ldd r22,Y+2
 527 02c2 7B81      		ldd r23,Y+3
 528 02c4 6F5F      		subi r22,lo8(-(1))
 529 02c6 7F4F      		sbci r23,hi8(-(1))
 530 02c8 4C81      		ldd r20,Y+4
 531 02ca 5D81      		ldd r21,Y+5
 532 02cc 8881      		ld r24,Y
 533 02ce 9981      		ldd r25,Y+1
 534 02d0 0E94 0000 		call inrange
 535               	.LBB9:
 536 02d4 8823      		tst r24
 537 02d6 01F0      		breq .L39
 538               	.LBE9:
 539 02d8 6A81      		ldd r22,Y+2
 540 02da 7B81      		ldd r23,Y+3
 541 02dc 6F5F      		subi r22,lo8(-(1))
 542 02de 7F4F      		sbci r23,hi8(-(1))
 543 02e0 4C81      		ldd r20,Y+4
 544 02e2 5D81      		ldd r21,Y+5
 545 02e4 8881      		ld r24,Y
 546 02e6 9981      		ldd r25,Y+1
 547 02e8 0E94 0000 		call getvoxel
 548               	.LBB10:
 549 02ec 8823      		tst r24
 550 02ee 01F4      		brne .+2
 551 02f0 00C0      		rjmp .L57
 552               	.L39:
 553               	.LBE10:
 554 02f2 6A81      		ldd r22,Y+2
 555 02f4 7B81      		ldd r23,Y+3
 556 02f6 6150      		subi r22,lo8(-(-1))
 557 02f8 7040      		sbci r23,hi8(-(-1))
 558 02fa 4C81      		ldd r20,Y+4
 559 02fc 5D81      		ldd r21,Y+5
 560 02fe 8881      		ld r24,Y
 561 0300 9981      		ldd r25,Y+1
 562 0302 0E94 0000 		call inrange
 563               	.LBB11:
 564 0306 8823      		tst r24
 565 0308 01F0      		breq .L40
 566               	.LBE11:
 567 030a 6A81      		ldd r22,Y+2
 568 030c 7B81      		ldd r23,Y+3
 569 030e 6150      		subi r22,lo8(-(-1))
 570 0310 7040      		sbci r23,hi8(-(-1))
 571 0312 4C81      		ldd r20,Y+4
 572 0314 5D81      		ldd r21,Y+5
 573 0316 8881      		ld r24,Y
 574 0318 9981      		ldd r25,Y+1
 575 031a 0E94 0000 		call getvoxel
 576               	.LBB12:
 577 031e 8823      		tst r24
 578 0320 01F0      		breq .L57
 579               	.L40:
 580               	.LBE12:
 581 0322 6A81      		ldd r22,Y+2
 582 0324 7B81      		ldd r23,Y+3
 583 0326 4C81      		ldd r20,Y+4
 584 0328 5D81      		ldd r21,Y+5
 585 032a 4F5F      		subi r20,lo8(-(1))
 586 032c 5F4F      		sbci r21,hi8(-(1))
 587 032e 8881      		ld r24,Y
 588 0330 9981      		ldd r25,Y+1
 589 0332 0E94 0000 		call inrange
 590               	.LBB13:
 591 0336 8823      		tst r24
 592 0338 01F0      		breq .L41
 593               	.LBE13:
 594 033a 6A81      		ldd r22,Y+2
 595 033c 7B81      		ldd r23,Y+3
 596 033e 4C81      		ldd r20,Y+4
 597 0340 5D81      		ldd r21,Y+5
 598 0342 4F5F      		subi r20,lo8(-(1))
 599 0344 5F4F      		sbci r21,hi8(-(1))
 600 0346 8881      		ld r24,Y
 601 0348 9981      		ldd r25,Y+1
 602 034a 0E94 0000 		call getvoxel
 603               	.LBB14:
 604 034e 8823      		tst r24
 605 0350 01F0      		breq .L57
 606               	.L41:
 607               	.LBE14:
 608 0352 6A81      		ldd r22,Y+2
 609 0354 7B81      		ldd r23,Y+3
 610 0356 4C81      		ldd r20,Y+4
 611 0358 5D81      		ldd r21,Y+5
 612 035a 4150      		subi r20,lo8(-(-1))
 613 035c 5040      		sbci r21,hi8(-(-1))
 614 035e 8881      		ld r24,Y
 615 0360 9981      		ldd r25,Y+1
 616 0362 0E94 0000 		call inrange
 617               	.LBB15:
 618 0366 8823      		tst r24
 619 0368 01F4      		brne .+2
 620 036a 00C0      		rjmp .L42
 621               	.LBE15:
 622 036c 6A81      		ldd r22,Y+2
 623 036e 7B81      		ldd r23,Y+3
 624 0370 4C81      		ldd r20,Y+4
 625 0372 5D81      		ldd r21,Y+5
 626 0374 4150      		subi r20,lo8(-(-1))
 627 0376 5040      		sbci r21,hi8(-(-1))
 628 0378 8881      		ld r24,Y
 629 037a 9981      		ldd r25,Y+1
 630 037c 0E94 0000 		call getvoxel
 631               	.LBB16:
 632 0380 8823      		tst r24
 633 0382 01F0      		breq .+2
 634 0384 00C0      		rjmp .L42
 635               	.L57:
 636               	.LBE16:
 637               	.LBE4:
 638               	.LM53:
 639 0386 2224      		clr r2
 640 0388 2A94      		dec r2
 641               	.LM54:
 642 038a 3324      		clr r3
 643 038c 3394      		inc r3
 644               	.L59:
 645 038e E801      		movw r28,r16
 646 0390 AA85      		ldd r26,Y+10
 647 0392 BB85      		ldd r27,Y+11
 648 0394 0D80      		ldd __tmp_reg__,Y+5
 649 0396 DE81      		ldd r29,Y+6
 650 0398 C02D      		mov r28,__tmp_reg__
 651               	.LM55:
 652 039a E1E0      		ldi r30,lo8(1)
 653 039c FE16      		cp r15,r30
 654 039e 01F4      		brne .L43
 655               	.LM56:
 656 03a0 F801      		movw r30,r16
 657 03a2 8781      		ldd r24,Z+7
 658 03a4 9085      		ldd r25,Z+8
 659 03a6 FC01      		movw r30,r24
 660 03a8 3397      		sbiw r30,3
 661 03aa EE0F      		lsl r30
 662 03ac FF1F      		rol r31
 663 03ae EA0F      		add r30,r26
 664 03b0 FB1F      		adc r31,r27
 665 03b2 2081      		ld r18,Z
 666 03b4 3181      		ldd r19,Z+1
 667 03b6 3983      		std Y+1,r19
 668 03b8 2883      		st Y,r18
 669               	.LM57:
 670 03ba 0297      		sbiw r24,2
 671 03bc FC01      		movw r30,r24
 672 03be EE0F      		lsl r30
 673 03c0 FF1F      		rol r31
 674 03c2 EA0F      		add r30,r26
 675 03c4 FB1F      		adc r31,r27
 676 03c6 2081      		ld r18,Z
 677 03c8 3181      		ldd r19,Z+1
 678 03ca 3B83      		std Y+3,r19
 679 03cc 2A83      		std Y+2,r18
 680               	.LM58:
 681 03ce 0196      		adiw r24,1
 682 03d0 880F      		lsl r24
 683 03d2 991F      		rol r25
 684 03d4 A80F      		add r26,r24
 685 03d6 B91F      		adc r27,r25
 686 03d8 8D91      		ld r24,X+
 687 03da 9C91      		ld r25,X
 688 03dc 00C0      		rjmp .L60
 689               	.L43:
 690               	.LM59:
 691 03de 8D91      		ld r24,X+
 692 03e0 9C91      		ld r25,X
 693 03e2 1197      		sbiw r26,1
 694 03e4 9983      		std Y+1,r25
 695 03e6 8883      		st Y,r24
 696               	.LM60:
 697 03e8 1296      		adiw r26,2
 698 03ea 8D91      		ld r24,X+
 699 03ec 9C91      		ld r25,X
 700 03ee 1397      		sbiw r26,2+1
 701 03f0 9B83      		std Y+3,r25
 702 03f2 8A83      		std Y+2,r24
 703               	.LM61:
 704 03f4 1496      		adiw r26,4
 705 03f6 8D91      		ld r24,X+
 706 03f8 9C91      		ld r25,X
 707 03fa 1597      		sbiw r26,4+1
 708               	.L60:
 709 03fc 9D83      		std Y+5,r25
 710 03fe 8C83      		std Y+4,r24
 711               	.LM62:
 712 0400 0E94 0000 		call rand
 713 0404 63E0      		ldi r22,lo8(3)
 714 0406 70E0      		ldi r23,hi8(3)
 715 0408 0E94 0000 		call __divmodhi4
 716 040c E801      		movw r28,r16
 717 040e 8C83      		std Y+4,r24
 718               	.LM63:
 719 0410 0E94 0000 		call rand
 720 0414 80FF      		sbrs r24,0
 721 0416 00C0      		rjmp .L45
 722               	.LM64:
 723 0418 3B82      		std Y+3,r3
 724 041a 00C0      		rjmp .L46
 725               	.L45:
 726               	.LM65:
 727 041c F801      		movw r30,r16
 728 041e 2382      		std Z+3,r2
 729               	.L46:
 730               	.LM66:
 731 0420 E801      		movw r28,r16
 732 0422 AD81      		ldd r26,Y+5
 733 0424 BE81      		ldd r27,Y+6
 734 0426 8C81      		ldd r24,Y+4
 735 0428 E82F      		mov r30,r24
 736 042a F0E0      		ldi r31,lo8(0)
 737 042c EE0F      		lsl r30
 738 042e FF1F      		rol r31
 739 0430 EA0F      		add r30,r26
 740 0432 FB1F      		adc r31,r27
 741 0434 9081      		ld r25,Z
 742 0436 8B81      		ldd r24,Y+3
 743 0438 980F      		add r25,r24
 744 043a 9B83      		std Y+3,r25
 745               	.LM67:
 746 043c 9830      		cpi r25,lo8(8)
 747 043e 00F0      		brlo .+2
 748 0440 00C0      		rjmp .L59
 749               	.LM68:
 750 0442 892F      		mov r24,r25
 751 0444 9927      		clr r25
 752 0446 87FD      		sbrc r24,7
 753 0448 9095      		com r25
 754 044a 9183      		std Z+1,r25
 755 044c 8083      		st Z,r24
 756               	.LM69:
 757 044e 1296      		adiw r26,2
 758 0450 6D91      		ld r22,X+
 759 0452 7C91      		ld r23,X
 760 0454 1397      		sbiw r26,2+1
 761 0456 1496      		adiw r26,4
 762 0458 4D91      		ld r20,X+
 763 045a 5C91      		ld r21,X
 764 045c 1597      		sbiw r26,4+1
 765 045e 8D91      		ld r24,X+
 766 0460 9C91      		ld r25,X
 767 0462 0E94 0000 		call getvoxel
 768 0466 8823      		tst r24
 769 0468 01F0      		breq .+2
 770 046a 00C0      		rjmp .L59
 771               	.LM70:
 772 046c E1E0      		ldi r30,lo8(1)
 773 046e FE16      		cp r15,r30
 774 0470 01F4      		brne .L47
 775               	.LM71:
 776 0472 8F81      		ldd r24,Y+7
 777 0474 9885      		ldd r25,Y+8
 778 0476 4D81      		ldd r20,Y+5
 779 0478 5E81      		ldd r21,Y+6
 780 047a AA85      		ldd r26,Y+10
 781 047c BB85      		ldd r27,Y+11
 782 047e FC01      		movw r30,r24
 783 0480 EE0F      		lsl r30
 784 0482 FF1F      		rol r31
 785 0484 EA0F      		add r30,r26
 786 0486 FB1F      		adc r31,r27
 787 0488 EA01      		movw r28,r20
 788 048a 2881      		ld r18,Y
 789 048c 3981      		ldd r19,Y+1
 790 048e 3183      		std Z+1,r19
 791 0490 2083      		st Z,r18
 792               	.LM72:
 793 0492 0196      		adiw r24,1
 794 0494 FC01      		movw r30,r24
 795 0496 EE0F      		lsl r30
 796 0498 FF1F      		rol r31
 797 049a EA0F      		add r30,r26
 798 049c FB1F      		adc r31,r27
 799 049e 2A81      		ldd r18,Y+2
 800 04a0 3B81      		ldd r19,Y+3
 801 04a2 3183      		std Z+1,r19
 802 04a4 2083      		st Z,r18
 803               	.LM73:
 804 04a6 0196      		adiw r24,1
 805 04a8 880F      		lsl r24
 806 04aa 991F      		rol r25
 807 04ac A80F      		add r26,r24
 808 04ae B91F      		adc r27,r25
 809 04b0 8C81      		ldd r24,Y+4
 810 04b2 9D81      		ldd r25,Y+5
 811 04b4 8D93      		st X+,r24
 812 04b6 9C93      		st X,r25
 813 04b8 00C0      		rjmp .L55
 814               	.L47:
 815               	.LM74:
 816 04ba F801      		movw r30,r16
 817 04bc 1282      		std Z+2,__zero_reg__
 818               	.LM75:
 819 04be 4FEF      		ldi r20,lo8(-1)
 820 04c0 5FEF      		ldi r21,hi8(-1)
 821 04c2 00C0      		rjmp .L49
 822               	.L52:
 823               	.LM76:
 824 04c4 E801      		movw r28,r16
 825 04c6 8985      		ldd r24,Y+9
 826 04c8 8150      		subi r24,lo8(-(-1))
 827 04ca 8983      		std Y+1,r24
 828 04cc 00C0      		rjmp .L50
 829               	.L51:
 830               	.LM77:
 831 04ce 822F      		mov r24,r18
 832 04d0 90E0      		ldi r25,lo8(0)
 833 04d2 FC01      		movw r30,r24
 834 04d4 EE0F      		lsl r30
 835 04d6 FF1F      		rol r31
 836 04d8 EA0F      		add r30,r26
 837 04da FB1F      		adc r31,r27
 838 04dc 0197      		sbiw r24,1
 839 04de 880F      		lsl r24
 840 04e0 991F      		rol r25
 841 04e2 A80F      		add r26,r24
 842 04e4 B91F      		adc r27,r25
 843 04e6 8D91      		ld r24,X+
 844 04e8 9C91      		ld r25,X
 845 04ea 9183      		std Z+1,r25
 846 04ec 8083      		st Z,r24
 847               	.LM78:
 848 04ee 2150      		subi r18,lo8(-(-1))
 849 04f0 F801      		movw r30,r16
 850 04f2 2183      		std Z+1,r18
 851               	.L50:
 852 04f4 E801      		movw r28,r16
 853 04f6 2981      		ldd r18,Y+1
 854 04f8 AA85      		ldd r26,Y+10
 855 04fa BB85      		ldd r27,Y+11
 856 04fc 2223      		tst r18
 857 04fe 01F4      		brne .L51
 858               	.LM79:
 859 0500 4D93      		st X+,r20
 860 0502 5C93      		st X,r21
 861               	.LM80:
 862 0504 8A81      		ldd r24,Y+2
 863 0506 8F5F      		subi r24,lo8(-(1))
 864 0508 8A83      		std Y+2,r24
 865               	.L49:
 866 050a F801      		movw r30,r16
 867 050c 8281      		ldd r24,Z+2
 868 050e 8330      		cpi r24,lo8(3)
 869 0510 00F0      		brlo .L52
 870               	.LM81:
 871 0512 1282      		std Z+2,__zero_reg__
 872 0514 00C0      		rjmp .L53
 873               	.L54:
 874               	.LM82:
 875 0516 822F      		mov r24,r18
 876 0518 90E0      		ldi r25,lo8(0)
 877 051a E801      		movw r28,r16
 878 051c AA85      		ldd r26,Y+10
 879 051e BB85      		ldd r27,Y+11
 880 0520 880F      		lsl r24
 881 0522 991F      		rol r25
 882 0524 A80F      		add r26,r24
 883 0526 B91F      		adc r27,r25
 884 0528 ED81      		ldd r30,Y+5
 885 052a FE81      		ldd r31,Y+6
 886 052c E80F      		add r30,r24
 887 052e F91F      		adc r31,r25
 888 0530 8081      		ld r24,Z
 889 0532 9181      		ldd r25,Z+1
 890 0534 8D93      		st X+,r24
 891 0536 9C93      		st X,r25
 892               	.LM83:
 893 0538 2F5F      		subi r18,lo8(-(1))
 894 053a 2A83      		std Y+2,r18
 895               	.L53:
 896 053c F801      		movw r30,r16
 897 053e 2281      		ldd r18,Z+2
 898 0540 2330      		cpi r18,lo8(3)
 899 0542 00F0      		brlo .L54
 900 0544 00C0      		rjmp .L55
 901               	.L42:
 902               	.LM84:
 903 0546 1801      		movw r2,r16
 904 0548 80ED      		ldi r24,lo8(2000)
 905 054a 97E0      		ldi r25,hi8(2000)
 906 054c 60ED      		ldi r22,lo8(2000)
 907 054e 77E0      		ldi r23,hi8(2000)
 908 0550 0E94 0000 		call drawSnake.2831
 909               	.LM85:
 910 0554 E801      		movw r28,r16
 911 0556 1882      		st Y,__zero_reg__
 912               	.L55:
 913               	/* epilogue start */
 914               	.LM86:
 915 0558 DF91      		pop r29
 916 055a CF91      		pop r28
 917 055c 1F91      		pop r17
 918 055e 0F91      		pop r16
 919 0560 FF90      		pop r15
 920               	.LVL52:
 921 0562 3F90      		pop r3
 922 0564 2F90      		pop r2
 923 0566 0895      		ret
 924               	.LFE40:
 926               	.global	snake
 928               	snake:
 929               	.LFB37:
 930               	.LM87:
 931               	.LVL53:
 932 0568 2F92      		push r2
 933 056a 3F92      		push r3
 934 056c 6F92      		push r6
 935 056e 7F92      		push r7
 936 0570 8F92      		push r8
 937 0572 9F92      		push r9
 938 0574 AF92      		push r10
 939 0576 BF92      		push r11
 940 0578 CF92      		push r12
 941 057a DF92      		push r13
 942 057c EF92      		push r14
 943 057e FF92      		push r15
 944 0580 1F93      		push r17
 945 0582 DF93      		push r29
 946 0584 CF93      		push r28
 947 0586 CDB7      		in r28,__SP_L__
 948 0588 DEB7      		in r29,__SP_H__
 949 058a 2E97      		sbiw r28,14
 950 058c 0FB6      		in __tmp_reg__,__SREG__
 951 058e F894      		cli
 952 0590 DEBF      		out __SP_H__,r29
 953 0592 0FBE      		out __SREG__,__tmp_reg__
 954 0594 CDBF      		out __SP_L__,r28
 955               	/* prologue: function */
 956               	/* frame size = 14 */
 957 0596 4C01      		movw r8,r24
 958 0598 5B01      		movw r10,r22
 959               	.LM88:
 960 059a 6DB6      		in r6,__SP_L__
 961 059c 7EB6      		in r7,__SP_H__
 962               	.LM89:
 963 059e 81E0      		ldi r24,lo8(1)
 964               	.LVL54:
 965 05a0 8983      		std Y+1,r24
 966               	.LM90:
 967 05a2 0E94 0000 		call rand
 968               	.LVL55:
 969 05a6 6BE0      		ldi r22,lo8(11)
 970 05a8 70E0      		ldi r23,hi8(11)
 971 05aa 0E94 0000 		call __divmodhi4
 972 05ae 9C01      		movw r18,r24
 973 05b0 220F      		lsl r18
 974 05b2 331F      		rol r19
 975 05b4 280F      		add r18,r24
 976 05b6 391F      		adc r19,r25
 977 05b8 225E      		subi r18,lo8(-(30))
 978 05ba 2A87      		std Y+10,r18
 979               	.LM91:
 980 05bc 822F      		mov r24,r18
 981 05be 9927      		clr r25
 982 05c0 87FD      		sbrc r24,7
 983 05c2 9095      		com r25
 984 05c4 880F      		lsl r24
 985 05c6 991F      		rol r25
 986 05c8 2DB7      		in r18,__SP_L__
 987 05ca 3EB7      		in r19,__SP_H__
 988 05cc 281B      		sub r18,r24
 989 05ce 390B      		sbc r19,r25
 990 05d0 0FB6      		in __tmp_reg__,__SREG__
 991 05d2 F894      		cli
 992 05d4 3EBF      		out __SP_H__,r19
 993 05d6 0FBE      		out __SREG__,__tmp_reg__
 994 05d8 2DBF      		out __SP_L__,r18
 995 05da 2F5F      		subi r18,lo8(-(1))
 996 05dc 3F4F      		sbci r19,hi8(-(1))
 997 05de 3C87      		std Y+12,r19
 998 05e0 2B87      		std Y+11,r18
 999 05e2 2DB7      		in r18,__SP_L__
 1000 05e4 3EB7      		in r19,__SP_H__
 1001 05e6 281B      		sub r18,r24
 1002 05e8 390B      		sbc r19,r25
 1003 05ea 0FB6      		in __tmp_reg__,__SREG__
 1004 05ec F894      		cli
 1005 05ee 3EBF      		out __SP_H__,r19
 1006 05f0 0FBE      		out __SREG__,__tmp_reg__
 1007 05f2 2DBF      		out __SP_L__,r18
 1008 05f4 8DB7      		in r24,__SP_L__
 1009 05f6 9EB7      		in r25,__SP_H__
 1010 05f8 0196      		adiw r24,1
 1011 05fa 9F83      		std Y+7,r25
 1012 05fc 8E83      		std Y+6,r24
 1013 05fe EE24      		clr r14
 1014 0600 FF24      		clr r15
 1015               	.LVL56:
 1016               	.LM92:
 1017 0602 6E01      		movw r12,r28
 1018 0604 0894      		sec
 1019 0606 C11C      		adc r12,__zero_reg__
 1020 0608 D11C      		adc r13,__zero_reg__
 1021 060a 00C0      		rjmp .L62
 1022               	.L72:
 1023               	.LM93:
 1024 060c E114      		cp r14,__zero_reg__
 1025 060e F104      		cpc r15,__zero_reg__
 1026 0610 01F0      		breq .L63
 1027               	.LM94:
 1028 0612 1601      		movw r2,r12
 1029 0614 82E0      		ldi r24,lo8(2)
 1030 0616 0E94 0000 		call snakeFillAndMove.2840
 1031 061a 00C0      		rjmp .L64
 1032               	.L63:
 1033               	.LM95:
 1034 061c 1986      		std Y+9,__zero_reg__
 1035 061e 1886      		std Y+8,__zero_reg__
 1036 0620 00C0      		rjmp .L65
 1037               	.L70:
 1038               	.LM96:
 1039 0622 232B      		or r18,r19
 1040 0624 01F4      		brne .L66
 1041               	.LM97:
 1042 0626 1A82      		std Y+2,__zero_reg__
 1043 0628 00C0      		rjmp .L67
 1044               	.L68:
 1045               	.LM98:
 1046 062a 0E94 0000 		call rand
 1047 062e EB85      		ldd r30,Y+11
 1048 0630 FC85      		ldd r31,Y+12
 1049 0632 212F      		mov r18,r17
 1050 0634 30E0      		ldi r19,lo8(0)
 1051 0636 220F      		lsl r18
 1052 0638 331F      		rol r19
 1053 063a E20F      		add r30,r18
 1054 063c F31F      		adc r31,r19
 1055 063e 68E0      		ldi r22,lo8(8)
 1056 0640 70E0      		ldi r23,hi8(8)
 1057 0642 0E94 0000 		call __divmodhi4
 1058 0646 9183      		std Z+1,r25
 1059 0648 8083      		st Z,r24
 1060               	.LM99:
 1061 064a 8A81      		ldd r24,Y+2
 1062 064c 8F5F      		subi r24,lo8(-(1))
 1063 064e 8A83      		std Y+2,r24
 1064               	.L67:
 1065 0650 1A81      		ldd r17,Y+2
 1066 0652 1330      		cpi r17,lo8(3)
 1067 0654 00F0      		brlo .L68
 1068 0656 00C0      		rjmp .L69
 1069               	.L66:
 1070               	.LM100:
 1071 0658 1601      		movw r2,r12
 1072 065a 81E0      		ldi r24,lo8(1)
 1073 065c 0E94 0000 		call snakeFillAndMove.2840
 1074               	.L69:
 1075               	.LM101:
 1076 0660 8885      		ldd r24,Y+8
 1077 0662 9985      		ldd r25,Y+9
 1078 0664 0396      		adiw r24,3
 1079 0666 9987      		std Y+9,r25
 1080 0668 8887      		std Y+8,r24
 1081               	.L65:
 1082 066a 2885      		ldd r18,Y+8
 1083 066c 3985      		ldd r19,Y+9
 1084 066e 8A85      		ldd r24,Y+10
 1085 0670 9927      		clr r25
 1086 0672 87FD      		sbrc r24,7
 1087 0674 9095      		com r25
 1088 0676 2817      		cp r18,r24
 1089 0678 3907      		cpc r19,r25
 1090 067a 04F4      		brge .L64
 1091 067c 8981      		ldd r24,Y+1
 1092 067e 8823      		tst r24
 1093 0680 01F4      		brne .L70
 1094               	.L64:
 1095               	.LM102:
 1096 0682 1601      		movw r2,r12
 1097 0684 C401      		movw r24,r8
 1098 0686 60E0      		ldi r22,lo8(0)
 1099 0688 70E0      		ldi r23,hi8(0)
 1100 068a 0E94 0000 		call drawSnake.2831
 1101               	.LM103:
 1102 068e 0894      		sec
 1103 0690 E11C      		adc r14,__zero_reg__
 1104 0692 F11C      		adc r15,__zero_reg__
 1105               	.L62:
 1106 0694 EA14      		cp r14,r10
 1107 0696 FB04      		cpc r15,r11
 1108 0698 04F4      		brge .L73
 1109 069a 8981      		ldd r24,Y+1
 1110 069c 8823      		tst r24
 1111 069e 01F0      		breq .+2
 1112 06a0 00C0      		rjmp .L72
 1113               	.L73:
 1114               	.LM104:
 1115 06a2 0FB6      		in __tmp_reg__,__SREG__
 1116 06a4 F894      		cli
 1117 06a6 7EBE      		out __SP_H__,r7
 1118 06a8 0FBE      		out __SREG__,__tmp_reg__
 1119 06aa 6DBE      		out __SP_L__,r6
 1120               	/* epilogue start */
 1121 06ac 2E96      		adiw r28,14
 1122 06ae 0FB6      		in __tmp_reg__,__SREG__
 1123 06b0 F894      		cli
 1124 06b2 DEBF      		out __SP_H__,r29
 1125 06b4 0FBE      		out __SREG__,__tmp_reg__
 1126 06b6 CDBF      		out __SP_L__,r28
 1127 06b8 CF91      		pop r28
 1128 06ba DF91      		pop r29
 1129 06bc 1F91      		pop r17
 1130 06be FF90      		pop r15
 1131 06c0 EF90      		pop r14
 1132               	.LVL57:
 1133 06c2 DF90      		pop r13
 1134 06c4 CF90      		pop r12
 1135 06c6 BF90      		pop r11
 1136 06c8 AF90      		pop r10
 1137               	.LVL58:
 1138 06ca 9F90      		pop r9
 1139 06cc 8F90      		pop r8
 1140               	.LVL59:
 1141 06ce 7F90      		pop r7
 1142 06d0 6F90      		pop r6
 1143 06d2 3F90      		pop r3
 1144 06d4 2F90      		pop r2
 1145 06d6 0895      		ret
 1146               	.LFE37:
 1148               	.global	diagonal_triangle
 1150               	diagonal_triangle:
 1151               	.LFB31:
 1152               	.LM105:
 1153               	.LVL60:
 1154 06d8 3F92      		push r3
 1155 06da 4F92      		push r4
 1156 06dc 5F92      		push r5
 1157 06de 6F92      		push r6
 1158 06e0 7F92      		push r7
 1159 06e2 8F92      		push r8
 1160 06e4 9F92      		push r9
 1161 06e6 AF92      		push r10
 1162 06e8 BF92      		push r11
 1163 06ea CF92      		push r12
 1164 06ec DF92      		push r13
 1165 06ee EF92      		push r14
 1166 06f0 FF92      		push r15
 1167 06f2 0F93      		push r16
 1168 06f4 1F93      		push r17
 1169 06f6 DF93      		push r29
 1170 06f8 CF93      		push r28
 1171 06fa 00D0      		rcall .
 1172 06fc 00D0      		rcall .
 1173 06fe 00D0      		rcall .
 1174 0700 CDB7      		in r28,__SP_L__
 1175 0702 DEB7      		in r29,__SP_H__
 1176               	/* prologue: function */
 1177               	/* frame size = 6 */
 1178 0704 9A83      		std Y+2,r25
 1179 0706 8983      		std Y+1,r24
 1180 0708 7C83      		std Y+4,r23
 1181 070a 6B83      		std Y+3,r22
 1182               	.LM106:
 1183 070c 11E0      		ldi r17,lo8(1)
 1184               	.LVL61:
 1185 070e 4424      		clr r4
 1186 0710 5524      		clr r5
 1187 0712 00C0      		rjmp .L75
 1188               	.LVL62:
 1189               	.L91:
 1190               	.LM107:
 1191 0714 0E94 0000 		call rand
 1192 0718 68E0      		ldi r22,lo8(8)
 1193 071a 70E0      		ldi r23,hi8(8)
 1194 071c 0E94 0000 		call __divmodhi4
 1195 0720 982E      		mov r9,r24
 1196               	.LM108:
 1197 0722 8117      		cp r24,r17
 1198 0724 01F0      		breq .L91
 1199               	.LVL63:
 1200 0726 8824      		clr r8
 1201 0728 00C0      		rjmp .L77
 1202               	.LVL64:
 1203               	.L88:
 1204 072a 832D      		mov r24,r3
 1205 072c 9927      		clr r25
 1206 072e 87FD      		sbrc r24,7
 1207 0730 9095      		com r25
 1208 0732 A7E0      		ldi r26,lo8(7)
 1209 0734 CA2E      		mov r12,r26
 1210 0736 D12C      		mov r13,__zero_reg__
 1211 0738 C81A      		sub r12,r24
 1212 073a D90A      		sbc r13,r25
 1213 073c 1E82      		std Y+6,__zero_reg__
 1214 073e 1D82      		std Y+5,__zero_reg__
 1215 0740 F7E0      		ldi r31,lo8(7)
 1216 0742 EF2E      		mov r14,r31
 1217 0744 F12C      		mov r15,__zero_reg__
 1218               	.LM109:
 1219 0746 3C01      		movw r6,r24
 1220 0748 00C0      		rjmp .L78
 1221               	.L87:
 1222               	.LM110:
 1223 074a 9920      		tst r9
 1224 074c 01F4      		brne .L79
 1225 074e C301      		movw r24,r6
 1226 0750 2D81      		ldd r18,Y+5
 1227 0752 3E81      		ldd r19,Y+6
 1228 0754 821B      		sub r24,r18
 1229 0756 930B      		sbc r25,r19
 1230 0758 B801      		movw r22,r16
 1231 075a A901      		movw r20,r18
 1232 075c 00C0      		rjmp .L94
 1233               	.L79:
 1234               	.LM111:
 1235 075e 31E0      		ldi r19,lo8(1)
 1236 0760 9316      		cp r9,r19
 1237 0762 01F4      		brne .L81
 1238 0764 C601      		movw r24,r12
 1239 0766 00C0      		rjmp .L97
 1240               	.L81:
 1241               	.LM112:
 1242 0768 82E0      		ldi r24,lo8(2)
 1243 076a 9816      		cp r9,r24
 1244 076c 01F4      		brne .L82
 1245 076e C601      		movw r24,r12
 1246 0770 B801      		movw r22,r16
 1247 0772 00C0      		rjmp .L96
 1248               	.L82:
 1249               	.LM113:
 1250 0774 93E0      		ldi r25,lo8(3)
 1251 0776 9916      		cp r9,r25
 1252 0778 01F4      		brne .L83
 1253 077a C301      		movw r24,r6
 1254 077c ED81      		ldd r30,Y+5
 1255 077e FE81      		ldd r31,Y+6
 1256 0780 8E1B      		sub r24,r30
 1257 0782 9F0B      		sbc r25,r31
 1258 0784 B501      		movw r22,r10
 1259 0786 AF01      		movw r20,r30
 1260 0788 00C0      		rjmp .L94
 1261               	.L83:
 1262               	.LM114:
 1263 078a F4E0      		ldi r31,lo8(4)
 1264 078c 9F16      		cp r9,r31
 1265 078e 01F4      		brne .L84
 1266 0790 C301      		movw r24,r6
 1267 0792 2D81      		ldd r18,Y+5
 1268 0794 3E81      		ldd r19,Y+6
 1269 0796 821B      		sub r24,r18
 1270 0798 930B      		sbc r25,r19
 1271 079a 00C0      		rjmp .L98
 1272               	.L84:
 1273               	.LM115:
 1274 079c 35E0      		ldi r19,lo8(5)
 1275 079e 9316      		cp r9,r19
 1276 07a0 01F4      		brne .L85
 1277 07a2 C601      		movw r24,r12
 1278               	.L98:
 1279 07a4 B801      		movw r22,r16
 1280 07a6 00C0      		rjmp .L95
 1281               	.L85:
 1282               	.LM116:
 1283 07a8 86E0      		ldi r24,lo8(6)
 1284 07aa 9816      		cp r9,r24
 1285 07ac 01F4      		brne .L86
 1286 07ae C301      		movw r24,r6
 1287 07b0 ED81      		ldd r30,Y+5
 1288 07b2 FE81      		ldd r31,Y+6
 1289 07b4 8E1B      		sub r24,r30
 1290 07b6 9F0B      		sbc r25,r31
 1291               	.L97:
 1292 07b8 B501      		movw r22,r10
 1293               	.L95:
 1294 07ba A701      		movw r20,r14
 1295 07bc 00C0      		rjmp .L94
 1296               	.L86:
 1297               	.LM117:
 1298 07be C601      		movw r24,r12
 1299 07c0 B501      		movw r22,r10
 1300               	.L96:
 1301 07c2 4D81      		ldd r20,Y+5
 1302 07c4 5E81      		ldd r21,Y+6
 1303               	.L94:
 1304 07c6 0E94 0000 		call setvoxel
 1305 07ca 2D81      		ldd r18,Y+5
 1306 07cc 3E81      		ldd r19,Y+6
 1307 07ce 2F5F      		subi r18,lo8(-(1))
 1308 07d0 3F4F      		sbci r19,hi8(-(1))
 1309 07d2 3E83      		std Y+6,r19
 1310 07d4 2D83      		std Y+5,r18
 1311 07d6 0894      		sec
 1312 07d8 C11C      		adc r12,__zero_reg__
 1313 07da D11C      		adc r13,__zero_reg__
 1314 07dc 0894      		sec
 1315 07de E108      		sbc r14,__zero_reg__
 1316 07e0 F108      		sbc r15,__zero_reg__
 1317               	.L78:
 1318               	.LM118:
 1319 07e2 832D      		mov r24,r3
 1320 07e4 3D81      		ldd r19,Y+5
 1321 07e6 831B      		sub r24,r19
 1322 07e8 87FF      		sbrs r24,7
 1323 07ea 00C0      		rjmp .L87
 1324 07ec 0F5F      		subi r16,lo8(-(1))
 1325 07ee 1F4F      		sbci r17,hi8(-(1))
 1326 07f0 3A94      		dec r3
 1327 07f2 0894      		sec
 1328 07f4 A108      		sbc r10,__zero_reg__
 1329 07f6 B108      		sbc r11,__zero_reg__
 1330               	.LM119:
 1331 07f8 8016      		cp r8,r16
 1332 07fa 04F0      		brlt .+2
 1333 07fc 00C0      		rjmp .L88
 1334               	.LM120:
 1335 07fe 8981      		ldd r24,Y+1
 1336 0800 9A81      		ldd r25,Y+2
 1337 0802 0E94 0000 		call delay_ms
 1338               	.LM121:
 1339 0806 80E0      		ldi r24,lo8(0)
 1340 0808 0E94 0000 		call fill
 1341               	.LM122:
 1342 080c 8394      		inc r8
 1343 080e 86E1      		ldi r24,lo8(22)
 1344 0810 8816      		cp r8,r24
 1345 0812 01F0      		breq .L89
 1346               	.LVL65:
 1347               	.L77:
 1348 0814 382C      		mov r3,r8
 1349 0816 00E0      		ldi r16,lo8(0)
 1350 0818 10E0      		ldi r17,hi8(0)
 1351 081a E7E0      		ldi r30,lo8(7)
 1352 081c AE2E      		mov r10,r30
 1353 081e B12C      		mov r11,__zero_reg__
 1354 0820 00C0      		rjmp .L88
 1355               	.LVL66:
 1356               	.L89:
 1357 0822 0894      		sec
 1358 0824 411C      		adc r4,__zero_reg__
 1359 0826 511C      		adc r5,__zero_reg__
 1360 0828 192D      		mov r17,r9
 1361               	.LVL67:
 1362               	.L75:
 1363               	.LM123:
 1364 082a EB81      		ldd r30,Y+3
 1365 082c FC81      		ldd r31,Y+4
 1366 082e 4E16      		cp r4,r30
 1367 0830 5F06      		cpc r5,r31
 1368 0832 04F4      		brge .+2
 1369 0834 00C0      		rjmp .L91
 1370               	/* epilogue start */
 1371               	.LM124:
 1372 0836 2696      		adiw r28,6
 1373 0838 0FB6      		in __tmp_reg__,__SREG__
 1374 083a F894      		cli
 1375 083c DEBF      		out __SP_H__,r29
 1376 083e 0FBE      		out __SREG__,__tmp_reg__
 1377 0840 CDBF      		out __SP_L__,r28
 1378 0842 CF91      		pop r28
 1379 0844 DF91      		pop r29
 1380 0846 1F91      		pop r17
 1381               	.LVL68:
 1382 0848 0F91      		pop r16
 1383 084a FF90      		pop r15
 1384 084c EF90      		pop r14
 1385 084e DF90      		pop r13
 1386 0850 CF90      		pop r12
 1387 0852 BF90      		pop r11
 1388 0854 AF90      		pop r10
 1389 0856 9F90      		pop r9
 1390               	.LVL69:
 1391 0858 8F90      		pop r8
 1392               	.LVL70:
 1393 085a 7F90      		pop r7
 1394 085c 6F90      		pop r6
 1395 085e 5F90      		pop r5
 1396 0860 4F90      		pop r4
 1397 0862 3F90      		pop r3
 1398 0864 0895      		ret
 1399               	.LFE31:
 1401               	.global	fireworks
 1403               	fireworks:
 1404               	.LFB27:
 1405               	.LM125:
 1406               	.LVL71:
 1407 0866 2F92      		push r2
 1408 0868 3F92      		push r3
 1409 086a 4F92      		push r4
 1410 086c 5F92      		push r5
 1411 086e 6F92      		push r6
 1412 0870 7F92      		push r7
 1413 0872 8F92      		push r8
 1414 0874 9F92      		push r9
 1415 0876 AF92      		push r10
 1416 0878 BF92      		push r11
 1417 087a CF92      		push r12
 1418 087c DF92      		push r13
 1419 087e EF92      		push r14
 1420 0880 FF92      		push r15
 1421 0882 0F93      		push r16
 1422               	.LVL72:
 1423 0884 1F93      		push r17
 1424 0886 DF93      		push r29
 1425 0888 CF93      		push r28
 1426 088a CDB7      		in r28,__SP_L__
 1427 088c DEB7      		in r29,__SP_H__
 1428 088e 6597      		sbiw r28,21
 1429 0890 0FB6      		in __tmp_reg__,__SREG__
 1430 0892 F894      		cli
 1431 0894 DEBF      		out __SP_H__,r29
 1432 0896 0FBE      		out __SREG__,__tmp_reg__
 1433 0898 CDBF      		out __SP_L__,r28
 1434               	/* prologue: function */
 1435               	/* frame size = 21 */
 1436 089a 9987      		std Y+9,r25
 1437 089c 8887      		std Y+8,r24
 1438 089e 7B87      		std Y+11,r23
 1439 08a0 6A87      		std Y+10,r22
 1440               	.LM126:
 1441 08a2 21E0      		ldi r18,lo8(1)
 1442               	.LVL73:
 1443 08a4 2E83      		std Y+6,r18
 1444               	.LVL74:
 1445 08a6 1C82      		std Y+4,__zero_reg__
 1446 08a8 1B82      		std Y+3,__zero_reg__
 1447 08aa 00C0      		rjmp .L100
 1448               	.LVL75:
 1449               	.L119:
 1450               	.LM127:
 1451 08ac 0E94 0000 		call rand
 1452               	.LVL76:
 1453 08b0 64E0      		ldi r22,lo8(4)
 1454 08b2 70E0      		ldi r23,hi8(4)
 1455 08b4 0E94 0000 		call __divmodhi4
 1456 08b8 12E0      		ldi r17,lo8(2)
 1457 08ba B12E      		mov r11,r17
 1458 08bc B80E      		add r11,r24
 1459               	.LM128:
 1460 08be 0E94 0000 		call rand
 1461 08c2 64E0      		ldi r22,lo8(4)
 1462 08c4 70E0      		ldi r23,hi8(4)
 1463 08c6 0E94 0000 		call __divmodhi4
 1464 08ca B2E0      		ldi r27,lo8(2)
 1465 08cc EB2E      		mov r14,r27
 1466               	.LVL77:
 1467 08ce E80E      		add r14,r24
 1468               	.LM129:
 1469 08d0 0E94 0000 		call rand
 1470 08d4 65E0      		ldi r22,lo8(5)
 1471 08d6 70E0      		ldi r23,hi8(5)
 1472 08d8 0E94 0000 		call __divmodhi4
 1473 08dc F82E      		mov r15,r24
 1474               	.LVL78:
 1475 08de 382F      		mov r19,r24
 1476 08e0 3D5F      		subi r19,lo8(-(3))
 1477 08e2 3F83      		std Y+7,r19
 1478 08e4 8824      		clr r8
 1479 08e6 9924      		clr r9
 1480               	.LM130:
 1481 08e8 CB2C      		mov r12,r11
 1482 08ea DD24      		clr r13
 1483 08ec C7FC      		sbrc r12,7
 1484 08ee D094      		com r13
 1485               	.LVL79:
 1486 08f0 0E2D      		mov r16,r14
 1487 08f2 1127      		clr r17
 1488 08f4 07FD      		sbrc r16,7
 1489 08f6 1095      		com r17
 1490               	.LVL80:
 1491 08f8 00C0      		rjmp .L101
 1492               	.L102:
 1493 08fa C601      		movw r24,r12
 1494 08fc B801      		movw r22,r16
 1495 08fe A401      		movw r20,r8
 1496 0900 0E94 0000 		call setvoxel
 1497               	.LM131:
 1498 0904 8A85      		ldd r24,Y+10
 1499 0906 9B85      		ldd r25,Y+11
 1500 0908 0E94 0000 		call delay_ms
 1501               	.LM132:
 1502 090c 80E0      		ldi r24,lo8(0)
 1503 090e 0E94 0000 		call fill
 1504 0912 0894      		sec
 1505 0914 811C      		adc r8,__zero_reg__
 1506 0916 911C      		adc r9,__zero_reg__
 1507               	.L101:
 1508               	.LM133:
 1509 0918 8F81      		ldd r24,Y+7
 1510 091a 8816      		cp r8,r24
 1511 091c 04F0      		brlt .L102
 1512 091e 00E0      		ldi r16,lo8(0)
 1513 0920 10E0      		ldi r17,hi8(0)
 1514               	.LVL81:
 1515               	.LM134:
 1516 0922 9F2D      		mov r25,r15
 1517 0924 9B5F      		subi r25,lo8(-(5))
 1518 0926 988B      		std Y+16,r25
 1519               	.LM135:
 1520 0928 8F5F      		subi r24,lo8(-(1))
 1521 092a 898B      		std Y+17,r24
 1522               	.LM136:
 1523 092c EF2D      		mov r30,r15
 1524 092e E95F      		subi r30,lo8(-(7))
 1525 0930 EA8B      		std Y+18,r30
 1526               	.LM137:
 1527 0932 FF81      		ldd r31,Y+7
 1528 0934 FE5F      		subi r31,lo8(-(2))
 1529 0936 FB8B      		std Y+19,r31
 1530 0938 AB2C      		mov r10,r11
 1531 093a BB24      		clr r11
 1532 093c A7FC      		sbrc r10,7
 1533 093e B094      		com r11
 1534 0940 CE2C      		mov r12,r14
 1535 0942 DD24      		clr r13
 1536 0944 C7FC      		sbrc r12,7
 1537 0946 D094      		com r13
 1538               	.LVL82:
 1539 0948 00C0      		rjmp .L103
 1540               	.LVL83:
 1541               	.L117:
 1542               	.LM138:
 1543 094a 80E0      		ldi r24,lo8(0)
 1544 094c 0E94 0000 		call fill
 1545 0950 1C86      		std Y+12,__zero_reg__
 1546 0952 2E81      		ldd r18,Y+6
 1547 0954 2223      		tst r18
 1548 0956 01F4      		brne .L104
 1549 0958 31E0      		ldi r19,lo8(1)
 1550 095a 3C87      		std Y+12,r19
 1551               	.L104:
 1552 095c 8C85      		ldd r24,Y+12
 1553 095e 8E83      		std Y+6,r24
 1554               	.LVL84:
 1555 0960 EE24      		clr r14
 1556               	.L116:
 1557               	.LM139:
 1558 0962 EE20      		tst r14
 1559 0964 01F4      		brne .L105
 1560               	.LM140:
 1561 0966 0023      		tst r16
 1562 0968 01F0      		breq .L106
 1563 096a 93E0      		ldi r25,lo8(3)
 1564 096c F916      		cp r15,r25
 1565 096e 01F0      		breq .L106
 1566 0970 4F81      		ldd r20,Y+7
 1567               	.LVL85:
 1568 0972 00C0      		rjmp .L107
 1569               	.LVL86:
 1570               	.L106:
 1571               	.LM141:
 1572 0974 4989      		ldd r20,Y+17
 1573               	.LVL87:
 1574               	.L107:
 1575               	.LM142:
 1576 0976 EE85      		ldd r30,Y+14
 1577 0978 E230      		cpi r30,lo8(2)
 1578 097a 00F4      		brsh .L108
 1579               	.LM143:
 1580 097c 4B89      		ldd r20,Y+19
 1581               	.L108:
 1582               	.LM144:
 1583 097e F4E0      		ldi r31,lo8(4)
 1584 0980 FF15      		cp r31,r15
 1585 0982 04F4      		brge .L109
 1586 0984 4F85      		ldd r20,Y+15
 1587 0986 00C0      		rjmp .L109
 1588               	.LVL88:
 1589               	.L105:
 1590               	.LM145:
 1591 0988 21E0      		ldi r18,lo8(1)
 1592 098a E216      		cp r14,r18
 1593 098c 01F4      		brne .L110
 1594               	.LM146:
 1595 098e F216      		cp r15,r18
 1596 0990 01F4      		brne .L111
 1597               	.LM147:
 1598 0992 4989      		ldd r20,Y+17
 1599               	.LVL89:
 1600 0994 00C0      		rjmp .L109
 1601               	.LVL90:
 1602               	.L111:
 1603               	.LM148:
 1604 0996 32E0      		ldi r19,lo8(2)
 1605 0998 3F15      		cp r19,r15
 1606 099a 04F4      		brge .L112
 1607 099c 4D85      		ldd r20,Y+13
 1608               	.LVL91:
 1609 099e 00C0      		rjmp .L109
 1610               	.LVL92:
 1611               	.L110:
 1612               	.LM149:
 1613 09a0 82E0      		ldi r24,lo8(2)
 1614 09a2 E816      		cp r14,r24
 1615 09a4 01F4      		brne .L113
 1616               	.LM150:
 1617 09a6 0230      		cpi r16,lo8(2)
 1618 09a8 04F0      		brlt .L112
 1619 09aa 4A81      		ldd r20,Y+2
 1620 09ac 00C0      		rjmp .L109
 1621               	.LVL93:
 1622               	.L113:
 1623               	.LM151:
 1624 09ae 0023      		tst r16
 1625 09b0 01F0      		breq .L112
 1626 09b2 4981      		ldd r20,Y+1
 1627 09b4 00C0      		rjmp .L109
 1628               	.LVL94:
 1629               	.L112:
 1630 09b6 4F81      		ldd r20,Y+7
 1631               	.LVL95:
 1632               	.L109:
 1633 09b8 E42F      		mov r30,r20
 1634 09ba FF27      		clr r31
 1635 09bc E7FD      		sbrc r30,7
 1636 09be F095      		com r31
 1637 09c0 FD8B      		std Y+21,r31
 1638 09c2 EC8B      		std Y+20,r30
 1639               	.LM152:
 1640 09c4 FC85      		ldd r31,Y+12
 1641 09c6 FF23      		tst r31
 1642 09c8 01F4      		brne .L114
 1643               	.LM153:
 1644 09ca C301      		movw r24,r6
 1645 09cc B601      		movw r22,r12
 1646 09ce 4C89      		ldd r20,Y+20
 1647 09d0 5D89      		ldd r21,Y+21
 1648               	.LVL96:
 1649 09d2 0E94 0000 		call setvoxel
 1650               	.LM154:
 1651 09d6 C501      		movw r24,r10
 1652 09d8 B401      		movw r22,r8
 1653 09da 4C89      		ldd r20,Y+20
 1654 09dc 5D89      		ldd r21,Y+21
 1655 09de 0E94 0000 		call setvoxel
 1656               	.LM155:
 1657 09e2 C101      		movw r24,r2
 1658 09e4 B401      		movw r22,r8
 1659 09e6 4C89      		ldd r20,Y+20
 1660 09e8 5D89      		ldd r21,Y+21
 1661 09ea 0E94 0000 		call setvoxel
 1662               	.LM156:
 1663 09ee C301      		movw r24,r6
 1664 09f0 B401      		movw r22,r8
 1665 09f2 00C0      		rjmp .L123
 1666               	.LVL97:
 1667               	.L114:
 1668               	.LM157:
 1669 09f4 C101      		movw r24,r2
 1670 09f6 B601      		movw r22,r12
 1671 09f8 4C89      		ldd r20,Y+20
 1672 09fa 5D89      		ldd r21,Y+21
 1673               	.LVL98:
 1674 09fc 0E94 0000 		call setvoxel
 1675               	.LM158:
 1676 0a00 C501      		movw r24,r10
 1677 0a02 B201      		movw r22,r4
 1678 0a04 4C89      		ldd r20,Y+20
 1679 0a06 5D89      		ldd r21,Y+21
 1680 0a08 0E94 0000 		call setvoxel
 1681               	.LM159:
 1682 0a0c C301      		movw r24,r6
 1683 0a0e B201      		movw r22,r4
 1684 0a10 4C89      		ldd r20,Y+20
 1685 0a12 5D89      		ldd r21,Y+21
 1686 0a14 0E94 0000 		call setvoxel
 1687               	.LM160:
 1688 0a18 C101      		movw r24,r2
 1689 0a1a B201      		movw r22,r4
 1690               	.L123:
 1691 0a1c 4C89      		ldd r20,Y+20
 1692 0a1e 5D89      		ldd r21,Y+21
 1693 0a20 0E94 0000 		call setvoxel
 1694               	.LM161:
 1695 0a24 E394      		inc r14
 1696 0a26 24E0      		ldi r18,lo8(4)
 1697 0a28 E216      		cp r14,r18
 1698 0a2a 01F0      		breq .+2
 1699 0a2c 00C0      		rjmp .L116
 1700               	.LM162:
 1701 0a2e 3D81      		ldd r19,Y+5
 1702 0a30 3150      		subi r19,lo8(-(-1))
 1703 0a32 3D83      		std Y+5,r19
 1704               	.LVL99:
 1705               	.LM163:
 1706 0a34 8A85      		ldd r24,Y+10
 1707 0a36 9B85      		ldd r25,Y+11
 1708 0a38 0E94 0000 		call delay_ms
 1709               	.LM164:
 1710 0a3c 8D81      		ldd r24,Y+5
 1711 0a3e 8823      		tst r24
 1712 0a40 01F0      		breq .+2
 1713 0a42 00C0      		rjmp .L117
 1714 0a44 0F5F      		subi r16,lo8(-(1))
 1715 0a46 1F4F      		sbci r17,hi8(-(1))
 1716               	.LM165:
 1717 0a48 0830      		cpi r16,8
 1718 0a4a 1105      		cpc r17,__zero_reg__
 1719 0a4c 01F0      		breq .L118
 1720               	.L103:
 1721               	.LM166:
 1722 0a4e 802F      		mov r24,r16
 1723 0a50 880F      		lsl r24
 1724 0a52 9889      		ldd r25,Y+16
 1725 0a54 981B      		sub r25,r24
 1726 0a56 9A83      		std Y+2,r25
 1727               	.LVL100:
 1728 0a58 EF81      		ldd r30,Y+7
 1729 0a5a E81B      		sub r30,r24
 1730 0a5c E983      		std Y+1,r30
 1731               	.LVL101:
 1732 0a5e F2E0      		ldi r31,lo8(2)
 1733 0a60 FD83      		std Y+5,r31
 1734               	.LVL102:
 1735               	.LM167:
 1736 0a62 F02E      		mov r15,r16
 1737               	.LM168:
 1738 0a64 2889      		ldd r18,Y+16
 1739 0a66 201B      		sub r18,r16
 1740 0a68 2D87      		std Y+13,r18
 1741               	.LM169:
 1742 0a6a 302F      		mov r19,r16
 1743 0a6c 3150      		subi r19,lo8(-(-1))
 1744 0a6e 3E87      		std Y+14,r19
 1745               	.LM170:
 1746 0a70 8A89      		ldd r24,Y+18
 1747 0a72 801B      		sub r24,r16
 1748 0a74 8F87      		std Y+15,r24
 1749               	.LM171:
 1750 0a76 1801      		movw r2,r16
 1751 0a78 2A0C      		add r2,r10
 1752 0a7a 3B1C      		adc r3,r11
 1753               	.LM172:
 1754 0a7c 2801      		movw r4,r16
 1755 0a7e 4C0C      		add r4,r12
 1756 0a80 5D1C      		adc r5,r13
 1757               	.LM173:
 1758 0a82 3501      		movw r6,r10
 1759 0a84 601A      		sub r6,r16
 1760 0a86 710A      		sbc r7,r17
 1761               	.LM174:
 1762 0a88 4601      		movw r8,r12
 1763 0a8a 801A      		sub r8,r16
 1764 0a8c 910A      		sbc r9,r17
 1765 0a8e 00C0      		rjmp .L117
 1766               	.LVL103:
 1767               	.L118:
 1768               	.LM175:
 1769 0a90 EB81      		ldd r30,Y+3
 1770 0a92 FC81      		ldd r31,Y+4
 1771 0a94 3196      		adiw r30,1
 1772 0a96 FC83      		std Y+4,r31
 1773 0a98 EB83      		std Y+3,r30
 1774               	.LVL104:
 1775               	.L100:
 1776               	.LM176:
 1777 0a9a 2B81      		ldd r18,Y+3
 1778 0a9c 3C81      		ldd r19,Y+4
 1779 0a9e 8885      		ldd r24,Y+8
 1780 0aa0 9985      		ldd r25,Y+9
 1781 0aa2 2817      		cp r18,r24
 1782 0aa4 3907      		cpc r19,r25
 1783 0aa6 04F4      		brge .+2
 1784 0aa8 00C0      		rjmp .L119
 1785               	/* epilogue start */
 1786               	.LM177:
 1787 0aaa 6596      		adiw r28,21
 1788 0aac 0FB6      		in __tmp_reg__,__SREG__
 1789 0aae F894      		cli
 1790 0ab0 DEBF      		out __SP_H__,r29
 1791 0ab2 0FBE      		out __SREG__,__tmp_reg__
 1792 0ab4 CDBF      		out __SP_L__,r28
 1793 0ab6 CF91      		pop r28
 1794 0ab8 DF91      		pop r29
 1795 0aba 1F91      		pop r17
 1796 0abc 0F91      		pop r16
 1797 0abe FF90      		pop r15
 1798               	.LVL105:
 1799 0ac0 EF90      		pop r14
 1800               	.LVL106:
 1801 0ac2 DF90      		pop r13
 1802 0ac4 CF90      		pop r12
 1803               	.LVL107:
 1804 0ac6 BF90      		pop r11
 1805               	.LVL108:
 1806 0ac8 AF90      		pop r10
 1807 0aca 9F90      		pop r9
 1808 0acc 8F90      		pop r8
 1809 0ace 7F90      		pop r7
 1810 0ad0 6F90      		pop r6
 1811 0ad2 5F90      		pop r5
 1812 0ad4 4F90      		pop r4
 1813 0ad6 3F90      		pop r3
 1814 0ad8 2F90      		pop r2
 1815 0ada 0895      		ret
 1816               	.LFE27:
 1818               	.global	effect_random_sparkle_flash
 1820               	effect_random_sparkle_flash:
 1821               	.LFB24:
 1822               	.LM178:
 1823               	.LVL109:
 1824 0adc 6F92      		push r6
 1825 0ade 7F92      		push r7
 1826 0ae0 8F92      		push r8
 1827 0ae2 9F92      		push r9
 1828 0ae4 AF92      		push r10
 1829 0ae6 BF92      		push r11
 1830 0ae8 CF92      		push r12
 1831 0aea DF92      		push r13
 1832 0aec EF92      		push r14
 1833 0aee FF92      		push r15
 1834 0af0 0F93      		push r16
 1835 0af2 1F93      		push r17
 1836 0af4 CF93      		push r28
 1837 0af6 DF93      		push r29
 1838               	/* prologue: function */
 1839               	/* frame size = 0 */
 1840 0af8 3C01      		movw r6,r24
 1841 0afa 4B01      		movw r8,r22
 1842 0afc 5A01      		movw r10,r20
 1843               	.LM179:
 1844 0afe CC24      		clr r12
 1845 0b00 DD24      		clr r13
 1846               	.LVL110:
 1847 0b02 00C0      		rjmp .L125
 1848               	.LVL111:
 1849               	.L126:
 1850               	.LM180:
 1851 0b04 0E94 0000 		call rand
 1852 0b08 8C01      		movw r16,r24
 1853 0b0a 0E94 0000 		call rand
 1854 0b0e 7C01      		movw r14,r24
 1855 0b10 0E94 0000 		call rand
 1856 0b14 FC01      		movw r30,r24
 1857 0b16 C801      		movw r24,r16
 1858 0b18 68E0      		ldi r22,lo8(8)
 1859 0b1a 70E0      		ldi r23,hi8(8)
 1860 0b1c 0E94 0000 		call __divmodhi4
 1861 0b20 8C01      		movw r16,r24
 1862 0b22 C701      		movw r24,r14
 1863 0b24 68E0      		ldi r22,lo8(8)
 1864 0b26 70E0      		ldi r23,hi8(8)
 1865 0b28 0E94 0000 		call __divmodhi4
 1866 0b2c 9C01      		movw r18,r24
 1867 0b2e CF01      		movw r24,r30
 1868 0b30 68E0      		ldi r22,lo8(8)
 1869 0b32 70E0      		ldi r23,hi8(8)
 1870 0b34 0E94 0000 		call __divmodhi4
 1871 0b38 AC01      		movw r20,r24
 1872 0b3a C801      		movw r24,r16
 1873 0b3c B901      		movw r22,r18
 1874 0b3e 0E94 0000 		call setvoxel
 1875               	.LM181:
 1876 0b42 2196      		adiw r28,1
 1877               	.LVL112:
 1878               	.L128:
 1879 0b44 8C16      		cp r8,r28
 1880 0b46 9D06      		cpc r9,r29
 1881 0b48 04F4      		brge .L126
 1882               	.LM182:
 1883 0b4a C501      		movw r24,r10
 1884 0b4c 0E94 0000 		call delay_ms
 1885               	.LM183:
 1886 0b50 80E0      		ldi r24,lo8(0)
 1887 0b52 0E94 0000 		call fill
 1888               	.LM184:
 1889 0b56 0894      		sec
 1890 0b58 C11C      		adc r12,__zero_reg__
 1891 0b5a D11C      		adc r13,__zero_reg__
 1892               	.LVL113:
 1893               	.L125:
 1894 0b5c C614      		cp r12,r6
 1895 0b5e D704      		cpc r13,r7
 1896 0b60 04F4      		brge .L129
 1897 0b62 C0E0      		ldi r28,lo8(0)
 1898 0b64 D0E0      		ldi r29,hi8(0)
 1899 0b66 00C0      		rjmp .L128
 1900               	.L129:
 1901               	/* epilogue start */
 1902               	.LM185:
 1903 0b68 DF91      		pop r29
 1904 0b6a CF91      		pop r28
 1905               	.LVL114:
 1906 0b6c 1F91      		pop r17
 1907 0b6e 0F91      		pop r16
 1908 0b70 FF90      		pop r15
 1909 0b72 EF90      		pop r14
 1910 0b74 DF90      		pop r13
 1911 0b76 CF90      		pop r12
 1912               	.LVL115:
 1913 0b78 BF90      		pop r11
 1914 0b7a AF90      		pop r10
 1915               	.LVL116:
 1916 0b7c 9F90      		pop r9
 1917 0b7e 8F90      		pop r8
 1918               	.LVL117:
 1919 0b80 7F90      		pop r7
 1920 0b82 6F90      		pop r6
 1921               	.LVL118:
 1922 0b84 0895      		ret
 1923               	.LFE24:
 1925               	.global	effect_random_sparkle
 1927               	effect_random_sparkle:
 1928               	.LFB23:
 1929               	.LM186:
 1930               	.LVL119:
 1931 0b86 EF92      		push r14
 1932 0b88 FF92      		push r15
 1933 0b8a 0F93      		push r16
 1934 0b8c 1F93      		push r17
 1935 0b8e CF93      		push r28
 1936 0b90 DF93      		push r29
 1937               	/* prologue: function */
 1938               	/* frame size = 0 */
 1939 0b92 7C01      		movw r14,r24
 1940 0b94 8B01      		movw r16,r22
 1941               	.LM187:
 1942 0b96 C1E0      		ldi r28,lo8(1)
 1943 0b98 D0E0      		ldi r29,hi8(1)
 1944               	.LVL120:
 1945               	.L131:
 1946               	.LM188:
 1947 0b9a C701      		movw r24,r14
 1948 0b9c BE01      		movw r22,r28
 1949 0b9e A801      		movw r20,r16
 1950 0ba0 0E94 0000 		call effect_random_sparkle_flash
 1951               	.LM189:
 1952 0ba4 2196      		adiw r28,1
 1953 0ba6 C431      		cpi r28,20
 1954 0ba8 D105      		cpc r29,__zero_reg__
 1955 0baa 01F4      		brne .L131
 1956               	.L134:
 1957               	.LM190:
 1958 0bac C701      		movw r24,r14
 1959 0bae BE01      		movw r22,r28
 1960 0bb0 A801      		movw r20,r16
 1961 0bb2 0E94 0000 		call effect_random_sparkle_flash
 1962               	.LM191:
 1963 0bb6 2197      		sbiw r28,1
 1964 0bb8 01F4      		brne .L134
 1965               	/* epilogue start */
 1966               	.LM192:
 1967 0bba DF91      		pop r29
 1968 0bbc CF91      		pop r28
 1969               	.LVL121:
 1970 0bbe 1F91      		pop r17
 1971 0bc0 0F91      		pop r16
 1972               	.LVL122:
 1973 0bc2 FF90      		pop r15
 1974 0bc4 EF90      		pop r14
 1975               	.LVL123:
 1976 0bc6 0895      		ret
 1977               	.LFE23:
 1979               	.global	draw_positions_axis
 1981               	draw_positions_axis:
 1982               	.LFB10:
 1983               	.LM193:
 1984               	.LVL124:
 1985 0bc8 4F92      		push r4
 1986 0bca 5F92      		push r5
 1987 0bcc 6F92      		push r6
 1988 0bce 7F92      		push r7
 1989 0bd0 9F92      		push r9
 1990 0bd2 AF92      		push r10
 1991 0bd4 BF92      		push r11
 1992 0bd6 CF92      		push r12
 1993 0bd8 DF92      		push r13
 1994 0bda EF92      		push r14
 1995 0bdc FF92      		push r15
 1996 0bde 0F93      		push r16
 1997 0be0 1F93      		push r17
 1998 0be2 CF93      		push r28
 1999 0be4 DF93      		push r29
 2000               	/* prologue: function */
 2001               	/* frame size = 0 */
 2002 0be6 982E      		mov r9,r24
 2003 0be8 162F      		mov r17,r22
 2004 0bea 072F      		mov r16,r23
 2005               	.LVL125:
 2006 0bec 3A01      		movw r6,r20
 2007               	.LM194:
 2008 0bee 80E0      		ldi r24,lo8(0)
 2009               	.LVL126:
 2010 0bf0 0E94 0000 		call fill
 2011               	.LVL127:
 2012 0bf4 212F      		mov r18,r17
 2013 0bf6 302F      		mov r19,r16
 2014 0bf8 C901      		movw r24,r18
 2015 0bfa 6C01      		movw r12,r24
 2016 0bfc C0E0      		ldi r28,lo8(0)
 2017 0bfe D0E0      		ldi r29,hi8(0)
 2018               	.LVL128:
 2019               	.LM195:
 2020 0c00 07E0      		ldi r16,lo8(7)
 2021 0c02 402E      		mov r4,r16
 2022 0c04 512C      		mov r5,__zero_reg__
 2023               	.LVL129:
 2024 0c06 00C0      		rjmp .L138
 2025               	.LVL130:
 2026               	.L144:
 2027               	.LM196:
 2028 0c08 6114      		cp r6,__zero_reg__
 2029 0c0a 7104      		cpc r7,__zero_reg__
 2030 0c0c 01F0      		breq .L139
 2031               	.LM197:
 2032 0c0e F501      		movw r30,r10
 2033 0c10 8081      		ld r24,Z
 2034 0c12 A201      		movw r20,r4
 2035               	.LVL131:
 2036 0c14 481B      		sub r20,r24
 2037 0c16 5109      		sbc r21,__zero_reg__
 2038 0c18 00C0      		rjmp .L140
 2039               	.L139:
 2040               	.LM198:
 2041 0c1a F701      		movw r30,r14
 2042 0c1c 8081      		ld r24,Z
 2043 0c1e 482F      		mov r20,r24
 2044 0c20 50E0      		ldi r21,lo8(0)
 2045               	.L140:
 2046               	.LM199:
 2047 0c22 FAE7      		ldi r31,lo8(122)
 2048 0c24 9F16      		cp r9,r31
 2049 0c26 01F4      		brne .L141
 2050               	.LM200:
 2051 0c28 CE01      		movw r24,r28
 2052 0c2a B801      		movw r22,r16
 2053 0c2c 00C0      		rjmp .L148
 2054               	.L141:
 2055               	.LM201:
 2056 0c2e 89E7      		ldi r24,lo8(121)
 2057 0c30 9816      		cp r9,r24
 2058 0c32 01F4      		brne .L143
 2059               	.LM202:
 2060 0c34 CE01      		movw r24,r28
 2061 0c36 BA01      		movw r22,r20
 2062 0c38 A801      		movw r20,r16
 2063               	.LVL132:
 2064 0c3a 00C0      		rjmp .L148
 2065               	.LVL133:
 2066               	.L143:
 2067               	.LM203:
 2068 0c3c 98E7      		ldi r25,lo8(120)
 2069 0c3e 9916      		cp r9,r25
 2070 0c40 01F4      		brne .L142
 2071               	.LM204:
 2072 0c42 CA01      		movw r24,r20
 2073 0c44 B801      		movw r22,r16
 2074 0c46 AE01      		movw r20,r28
 2075               	.LVL134:
 2076               	.L148:
 2077 0c48 0E94 0000 		call setvoxel
 2078               	.LVL135:
 2079               	.L142:
 2080               	.LM205:
 2081 0c4c 0F5F      		subi r16,lo8(-(1))
 2082 0c4e 1F4F      		sbci r17,hi8(-(1))
 2083 0c50 0894      		sec
 2084 0c52 A11C      		adc r10,__zero_reg__
 2085 0c54 B11C      		adc r11,__zero_reg__
 2086 0c56 0894      		sec
 2087 0c58 E11C      		adc r14,__zero_reg__
 2088 0c5a F11C      		adc r15,__zero_reg__
 2089 0c5c 0830      		cpi r16,8
 2090 0c5e 1105      		cpc r17,__zero_reg__
 2091 0c60 01F4      		brne .L144
 2092               	.LM206:
 2093 0c62 2196      		adiw r28,1
 2094 0c64 E8E0      		ldi r30,lo8(8)
 2095 0c66 F0E0      		ldi r31,hi8(8)
 2096 0c68 CE0E      		add r12,r30
 2097 0c6a DF1E      		adc r13,r31
 2098 0c6c C830      		cpi r28,8
 2099 0c6e D105      		cpc r29,__zero_reg__
 2100 0c70 01F0      		breq .L146
 2101               	.L138:
 2102 0c72 5601      		movw r10,r12
 2103 0c74 7601      		movw r14,r12
 2104 0c76 00E0      		ldi r16,lo8(0)
 2105 0c78 10E0      		ldi r17,hi8(0)
 2106 0c7a 00C0      		rjmp .L144
 2107               	.L146:
 2108               	/* epilogue start */
 2109               	.LM207:
 2110 0c7c DF91      		pop r29
 2111 0c7e CF91      		pop r28
 2112               	.LVL136:
 2113 0c80 1F91      		pop r17
 2114               	.LVL137:
 2115 0c82 0F91      		pop r16
 2116               	.LVL138:
 2117 0c84 FF90      		pop r15
 2118 0c86 EF90      		pop r14
 2119 0c88 DF90      		pop r13
 2120 0c8a CF90      		pop r12
 2121 0c8c BF90      		pop r11
 2122 0c8e AF90      		pop r10
 2123 0c90 9F90      		pop r9
 2124               	.LVL139:
 2125 0c92 7F90      		pop r7
 2126 0c94 6F90      		pop r6
 2127               	.LVL140:
 2128 0c96 5F90      		pop r5
 2129 0c98 4F90      		pop r4
 2130 0c9a 0895      		ret
 2131               	.LFE10:
 2133               	.global	effect_boxside_randsend_parallel
 2135               	effect_boxside_randsend_parallel:
 2136               	.LFB19:
 2137               	.LM208:
 2138               	.LVL141:
 2139 0c9c 2F92      		push r2
 2140 0c9e 3F92      		push r3
 2141 0ca0 4F92      		push r4
 2142 0ca2 5F92      		push r5
 2143 0ca4 6F92      		push r6
 2144 0ca6 7F92      		push r7
 2145 0ca8 8F92      		push r8
 2146 0caa 9F92      		push r9
 2147 0cac AF92      		push r10
 2148 0cae BF92      		push r11
 2149 0cb0 CF92      		push r12
 2150 0cb2 DF92      		push r13
 2151 0cb4 EF92      		push r14
 2152 0cb6 FF92      		push r15
 2153 0cb8 0F93      		push r16
 2154 0cba 1F93      		push r17
 2155 0cbc DF93      		push r29
 2156 0cbe CF93      		push r28
 2157 0cc0 CDB7      		in r28,__SP_L__
 2158 0cc2 DEB7      		in r29,__SP_H__
 2159 0cc4 C158      		subi r28,lo8(-(-129))
 2160 0cc6 D040      		sbci r29,hi8(-(-129))
 2161 0cc8 0FB6      		in __tmp_reg__,__SREG__
 2162 0cca F894      		cli
 2163 0ccc DEBF      		out __SP_H__,r29
 2164 0cce 0FBE      		out __SREG__,__tmp_reg__
 2165 0cd0 CDBF      		out __SP_L__,r28
 2166               	/* prologue: function */
 2167               	/* frame size = 129 */
 2168 0cd2 CF57      		subi r28,lo8(-129)
 2169 0cd4 DF4F      		sbci r29,hi8(-129)
 2170 0cd6 8883      		st Y,r24
 2171 0cd8 C158      		subi r28,lo8(129)
 2172 0cda D040      		sbci r29,hi8(129)
 2173 0cdc 2B01      		movw r4,r22
 2174 0cde 3A01      		movw r6,r20
 2175 0ce0 4901      		movw r8,r18
 2176               	.LM209:
 2177 0ce2 91E4      		ldi r25,lo8(65)
 2178 0ce4 A92E      		mov r10,r25
 2179 0ce6 B12C      		mov r11,__zero_reg__
 2180 0ce8 AC0E      		add r10,r28
 2181 0cea BD1E      		adc r11,r29
 2182 0cec F501      		movw r30,r10
 2183 0cee 81E8      		ldi r24,lo8(129)
 2184 0cf0 C82E      		mov r12,r24
 2185 0cf2 D12C      		mov r13,__zero_reg__
 2186               	.LVL142:
 2187 0cf4 CC0E      		add r12,r28
 2188 0cf6 DD1E      		adc r13,r29
 2189               	.LVL143:
 2190               	.L150:
 2191               	.LM210:
 2192 0cf8 1192      		st Z+,__zero_reg__
 2193               	.LM211:
 2194 0cfa EC15      		cp r30,r12
 2195 0cfc FD05      		cpc r31,r13
 2196 0cfe 01F4      		brne .L150
 2197 0d00 00E0      		ldi r16,lo8(0)
 2198 0d02 10E0      		ldi r17,hi8(0)
 2199               	.LVL144:
 2200               	.LM212:
 2201 0d04 1E01      		movw r2,r28
 2202 0d06 0894      		sec
 2203 0d08 211C      		adc r2,__zero_reg__
 2204 0d0a 311C      		adc r3,__zero_reg__
 2205               	.LVL145:
 2206               	.L161:
 2207               	.LM213:
 2208 0d0c 81E0      		ldi r24,lo8(1)
 2209 0d0e 8816      		cp r8,r24
 2210 0d10 9104      		cpc r9,__zero_reg__
 2211 0d12 01F4      		brne .L169
 2212 0d14 00C0      		rjmp .L171
 2213               	.L163:
 2214               	.LM214:
 2215 0d16 0E94 0000 		call rand
 2216 0d1a 60E4      		ldi r22,lo8(64)
 2217 0d1c 70E0      		ldi r23,hi8(64)
 2218 0d1e 0E94 0000 		call __divmodhi4
 2219               	.LM215:
 2220 0d22 E1E4      		ldi r30,lo8(65)
 2221 0d24 F0E0      		ldi r31,hi8(65)
 2222 0d26 EC0F      		add r30,r28
 2223 0d28 FD1F      		adc r31,r29
 2224 0d2a E80F      		add r30,r24
 2225 0d2c F91F      		adc r31,r25
 2226               	.LVL146:
 2227 0d2e 8081      		ld r24,Z
 2228               	.LVL147:
 2229 0d30 8823      		tst r24
 2230 0d32 01F4      		brne .L163
 2231               	.LM216:
 2232 0d34 0F5F      		subi r16,lo8(-(1))
 2233 0d36 1F4F      		sbci r17,hi8(-(1))
 2234               	.LM217:
 2235 0d38 91E0      		ldi r25,lo8(1)
 2236 0d3a 9083      		st Z,r25
 2237 0d3c 00C0      		rjmp .L154
 2238               	.LVL148:
 2239               	.L171:
 2240               	.LM218:
 2241 0d3e 0034      		cpi r16,64
 2242 0d40 1105      		cpc r17,__zero_reg__
 2243 0d42 04F0      		brlt .L163
 2244 0d44 00C0      		rjmp .L154
 2245               	.L169:
 2246               	.LM219:
 2247 0d46 82E0      		ldi r24,lo8(2)
 2248 0d48 8816      		cp r8,r24
 2249 0d4a 9104      		cpc r9,__zero_reg__
 2250 0d4c 01F4      		brne .L154
 2251               	.LM220:
 2252 0d4e 0034      		cpi r16,64
 2253 0d50 1105      		cpc r17,__zero_reg__
 2254 0d52 04F4      		brge .L154
 2255               	.LM221:
 2256 0d54 E1E4      		ldi r30,lo8(65)
 2257 0d56 F0E0      		ldi r31,hi8(65)
 2258 0d58 EC0F      		add r30,r28
 2259 0d5a FD1F      		adc r31,r29
 2260 0d5c E00F      		add r30,r16
 2261 0d5e F11F      		adc r31,r17
 2262 0d60 8081      		ld r24,Z
 2263 0d62 8F5F      		subi r24,lo8(-(1))
 2264 0d64 8083      		st Z,r24
 2265               	.LM222:
 2266 0d66 0F5F      		subi r16,lo8(-(1))
 2267 0d68 1F4F      		sbci r17,hi8(-(1))
 2268               	.L154:
 2269 0d6a F501      		movw r30,r10
 2270 0d6c EE24      		clr r14
 2271 0d6e FF24      		clr r15
 2272               	.L157:
 2273               	.LM223:
 2274 0d70 9081      		ld r25,Z
 2275 0d72 892F      		mov r24,r25
 2276 0d74 8150      		subi r24,lo8(-(-1))
 2277 0d76 8630      		cpi r24,lo8(6)
 2278 0d78 00F4      		brsh .L155
 2279               	.LM224:
 2280 0d7a 9F5F      		subi r25,lo8(-(1))
 2281 0d7c 9083      		st Z,r25
 2282               	.L155:
 2283               	.LM225:
 2284 0d7e 8081      		ld r24,Z
 2285 0d80 8730      		cpi r24,lo8(7)
 2286 0d82 01F4      		brne .L156
 2287               	.LM226:
 2288 0d84 0894      		sec
 2289 0d86 E11C      		adc r14,__zero_reg__
 2290 0d88 F11C      		adc r15,__zero_reg__
 2291               	.L156:
 2292 0d8a 3196      		adiw r30,1
 2293               	.LM227:
 2294 0d8c EC15      		cp r30,r12
 2295 0d8e FD05      		cpc r31,r13
 2296 0d90 01F4      		brne .L157
 2297 0d92 D101      		movw r26,r2
 2298 0d94 F501      		movw r30,r10
 2299               	.L160:
 2300 0d96 8081      		ld r24,Z
 2301               	.LM228:
 2302 0d98 4114      		cp r4,__zero_reg__
 2303 0d9a 5104      		cpc r5,__zero_reg__
 2304 0d9c 01F0      		breq .L170
 2305               	.L158:
 2306               	.LM229:
 2307 0d9e 97E0      		ldi r25,lo8(7)
 2308 0da0 981B      		sub r25,r24
 2309 0da2 892F      		mov r24,r25
 2310               	.L170:
 2311 0da4 8C93      		st X,r24
 2312 0da6 3196      		adiw r30,1
 2313 0da8 1196      		adiw r26,1
 2314               	.LM230:
 2315 0daa EC15      		cp r30,r12
 2316 0dac FD05      		cpc r31,r13
 2317 0dae 01F4      		brne .L160
 2318               	.LM231:
 2319 0db0 C301      		movw r24,r6
 2320 0db2 0E94 0000 		call delay_ms
 2321               	.LM232:
 2322 0db6 CF57      		subi r28,lo8(-129)
 2323 0db8 DF4F      		sbci r29,hi8(-129)
 2324 0dba 8881      		ld r24,Y
 2325 0dbc C158      		subi r28,lo8(129)
 2326 0dbe D040      		sbci r29,hi8(129)
 2327 0dc0 B101      		movw r22,r2
 2328 0dc2 40E0      		ldi r20,lo8(0)
 2329 0dc4 50E0      		ldi r21,hi8(0)
 2330 0dc6 0E94 0000 		call draw_positions_axis
 2331               	.LM233:
 2332 0dca 80E4      		ldi r24,lo8(64)
 2333 0dcc E816      		cp r14,r24
 2334 0dce F104      		cpc r15,__zero_reg__
 2335 0dd0 01F0      		breq .+2
 2336 0dd2 00C0      		rjmp .L161
 2337               	/* epilogue start */
 2338               	.LM234:
 2339 0dd4 CF57      		subi r28,lo8(-(129))
 2340 0dd6 DF4F      		sbci r29,hi8(-(129))
 2341 0dd8 0FB6      		in __tmp_reg__,__SREG__
 2342 0dda F894      		cli
 2343 0ddc DEBF      		out __SP_H__,r29
 2344 0dde 0FBE      		out __SREG__,__tmp_reg__
 2345 0de0 CDBF      		out __SP_L__,r28
 2346 0de2 CF91      		pop r28
 2347 0de4 DF91      		pop r29
 2348 0de6 1F91      		pop r17
 2349 0de8 0F91      		pop r16
 2350               	.LVL149:
 2351 0dea FF90      		pop r15
 2352 0dec EF90      		pop r14
 2353               	.LVL150:
 2354 0dee DF90      		pop r13
 2355 0df0 CF90      		pop r12
 2356 0df2 BF90      		pop r11
 2357 0df4 AF90      		pop r10
 2358 0df6 9F90      		pop r9
 2359 0df8 8F90      		pop r8
 2360               	.LVL151:
 2361 0dfa 7F90      		pop r7
 2362 0dfc 6F90      		pop r6
 2363               	.LVL152:
 2364 0dfe 5F90      		pop r5
 2365 0e00 4F90      		pop r4
 2366               	.LVL153:
 2367 0e02 3F90      		pop r3
 2368 0e04 2F90      		pop r2
 2369 0e06 0895      		ret
 2370               	.LFE19:
 2372               	.global	effect_axis_updown_randsuspend
 2374               	effect_axis_updown_randsuspend:
 2375               	.LFB18:
 2376               	.LM235:
 2377               	.LVL154:
 2378 0e08 3F92      		push r3
 2379 0e0a 4F92      		push r4
 2380 0e0c 5F92      		push r5
 2381 0e0e 6F92      		push r6
 2382 0e10 7F92      		push r7
 2383 0e12 8F92      		push r8
 2384 0e14 9F92      		push r9
 2385 0e16 AF92      		push r10
 2386 0e18 BF92      		push r11
 2387 0e1a CF92      		push r12
 2388 0e1c DF92      		push r13
 2389 0e1e EF92      		push r14
 2390 0e20 FF92      		push r15
 2391 0e22 0F93      		push r16
 2392 0e24 1F93      		push r17
 2393 0e26 DF93      		push r29
 2394 0e28 CF93      		push r28
 2395 0e2a CDB7      		in r28,__SP_L__
 2396 0e2c DEB7      		in r29,__SP_H__
 2397 0e2e C058      		subi r28,lo8(-(-128))
 2398 0e30 D040      		sbci r29,hi8(-(-128))
 2399 0e32 0FB6      		in __tmp_reg__,__SREG__
 2400 0e34 F894      		cli
 2401 0e36 DEBF      		out __SP_H__,r29
 2402 0e38 0FBE      		out __SREG__,__tmp_reg__
 2403 0e3a CDBF      		out __SP_L__,r28
 2404               	/* prologue: function */
 2405               	/* frame size = 128 */
 2406 0e3c 382E      		mov r3,r24
 2407 0e3e 2B01      		movw r4,r22
 2408               	.LVL155:
 2409 0e40 4A01      		movw r8,r20
 2410 0e42 3901      		movw r6,r18
 2411               	.LM236:
 2412 0e44 00E0      		ldi r16,lo8(0)
 2413 0e46 10E0      		ldi r17,hi8(0)
 2414               	.LVL156:
 2415               	.LM237:
 2416 0e48 6E01      		movw r12,r28
 2417 0e4a 0894      		sec
 2418 0e4c C11C      		adc r12,__zero_reg__
 2419 0e4e D11C      		adc r13,__zero_reg__
 2420               	.LM238:
 2421 0e50 31E4      		ldi r19,lo8(65)
 2422 0e52 E32E      		mov r14,r19
 2423 0e54 F12C      		mov r15,__zero_reg__
 2424 0e56 EC0E      		add r14,r28
 2425 0e58 FD1E      		adc r15,r29
 2426               	.LVL157:
 2427               	.L173:
 2428               	.LM239:
 2429 0e5a F601      		movw r30,r12
 2430 0e5c E00F      		add r30,r16
 2431 0e5e F11F      		adc r31,r17
 2432 0e60 1082      		st Z,__zero_reg__
 2433               	.LM240:
 2434 0e62 0E94 0000 		call rand
 2435 0e66 F701      		movw r30,r14
 2436 0e68 E00F      		add r30,r16
 2437 0e6a F11F      		adc r31,r17
 2438 0e6c 68E0      		ldi r22,lo8(8)
 2439 0e6e 70E0      		ldi r23,hi8(8)
 2440 0e70 0E94 0000 		call __divmodhi4
 2441 0e74 8083      		st Z,r24
 2442               	.LM241:
 2443 0e76 0F5F      		subi r16,lo8(-(1))
 2444 0e78 1F4F      		sbci r17,hi8(-(1))
 2445 0e7a 0034      		cpi r16,64
 2446 0e7c 1105      		cpc r17,__zero_reg__
 2447 0e7e 01F4      		brne .L173
 2448 0e80 EE24      		clr r14
 2449 0e82 FF24      		clr r15
 2450               	.LVL158:
 2451               	.LM242:
 2452 0e84 5E01      		movw r10,r28
 2453 0e86 0894      		sec
 2454 0e88 A11C      		adc r10,__zero_reg__
 2455 0e8a B11C      		adc r11,__zero_reg__
 2456 0e8c 21E4      		ldi r18,lo8(65)
 2457 0e8e C22E      		mov r12,r18
 2458 0e90 D12C      		mov r13,__zero_reg__
 2459 0e92 CC0E      		add r12,r28
 2460 0e94 DD1E      		adc r13,r29
 2461 0e96 00C0      		rjmp .L174
 2462               	.L176:
 2463               	.LM243:
 2464 0e98 D801      		movw r26,r16
 2465 0e9a 9C91      		ld r25,X
 2466 0e9c 8081      		ld r24,Z
 2467 0e9e 9817      		cp r25,r24
 2468 0ea0 00F4      		brsh .L175
 2469               	.LM244:
 2470 0ea2 9F5F      		subi r25,lo8(-(1))
 2471 0ea4 9C93      		st X,r25
 2472               	.L175:
 2473 0ea6 0F5F      		subi r16,lo8(-(1))
 2474 0ea8 1F4F      		sbci r17,hi8(-(1))
 2475 0eaa 3196      		adiw r30,1
 2476               	.LM245:
 2477 0eac 0C15      		cp r16,r12
 2478 0eae 1D05      		cpc r17,r13
 2479 0eb0 01F4      		brne .L176
 2480               	.LM246:
 2481 0eb2 832D      		mov r24,r3
 2482 0eb4 B501      		movw r22,r10
 2483 0eb6 A301      		movw r20,r6
 2484 0eb8 0E94 0000 		call draw_positions_axis
 2485               	.LM247:
 2486 0ebc C201      		movw r24,r4
 2487 0ebe 0E94 0000 		call delay_ms
 2488               	.LM248:
 2489 0ec2 0894      		sec
 2490 0ec4 E11C      		adc r14,__zero_reg__
 2491 0ec6 F11C      		adc r15,__zero_reg__
 2492 0ec8 B8E0      		ldi r27,lo8(8)
 2493 0eca EB16      		cp r14,r27
 2494 0ecc F104      		cpc r15,__zero_reg__
 2495 0ece 01F0      		breq .L177
 2496               	.L174:
 2497 0ed0 8501      		movw r16,r10
 2498 0ed2 F601      		movw r30,r12
 2499 0ed4 00C0      		rjmp .L176
 2500               	.L177:
 2501 0ed6 F801      		movw r30,r16
 2502               	.LM249:
 2503 0ed8 27E0      		ldi r18,lo8(7)
 2504               	.LM250:
 2505 0eda CE01      		movw r24,r28
 2506 0edc 8F57      		subi r24,lo8(-(129))
 2507 0ede 9F4F      		sbci r25,hi8(-(129))
 2508               	.L178:
 2509               	.LM251:
 2510 0ee0 2193      		st Z+,r18
 2511               	.LM252:
 2512 0ee2 E817      		cp r30,r24
 2513 0ee4 F907      		cpc r31,r25
 2514 0ee6 01F4      		brne .L178
 2515               	.LM253:
 2516 0ee8 C401      		movw r24,r8
 2517 0eea 0E94 0000 		call delay_ms
 2518 0eee EE24      		clr r14
 2519 0ef0 FF24      		clr r15
 2520               	.LVL159:
 2521               	.LM254:
 2522 0ef2 4E01      		movw r8,r28
 2523               	.LVL160:
 2524 0ef4 0894      		sec
 2525 0ef6 811C      		adc r8,__zero_reg__
 2526 0ef8 911C      		adc r9,__zero_reg__
 2527 0efa 00C0      		rjmp .L179
 2528               	.L182:
 2529               	.LM255:
 2530 0efc 8081      		ld r24,Z
 2531 0efe 9C91      		ld r25,X
 2532 0f00 8917      		cp r24,r25
 2533 0f02 00F4      		brsh .L180
 2534               	.LM256:
 2535 0f04 8F5F      		subi r24,lo8(-(1))
 2536 0f06 8083      		st Z,r24
 2537               	.L180:
 2538               	.LM257:
 2539 0f08 8081      		ld r24,Z
 2540 0f0a 9817      		cp r25,r24
 2541 0f0c 00F4      		brsh .L181
 2542               	.LM258:
 2543 0f0e 8150      		subi r24,lo8(-(-1))
 2544 0f10 8083      		st Z,r24
 2545               	.L181:
 2546 0f12 3196      		adiw r30,1
 2547 0f14 1196      		adiw r26,1
 2548               	.LM259:
 2549 0f16 E017      		cp r30,r16
 2550 0f18 F107      		cpc r31,r17
 2551 0f1a 01F4      		brne .L182
 2552               	.LM260:
 2553 0f1c 832D      		mov r24,r3
 2554 0f1e B401      		movw r22,r8
 2555 0f20 A301      		movw r20,r6
 2556 0f22 0E94 0000 		call draw_positions_axis
 2557               	.LM261:
 2558 0f26 C201      		movw r24,r4
 2559 0f28 0E94 0000 		call delay_ms
 2560               	.LM262:
 2561 0f2c 0894      		sec
 2562 0f2e E11C      		adc r14,__zero_reg__
 2563 0f30 F11C      		adc r15,__zero_reg__
 2564 0f32 88E0      		ldi r24,lo8(8)
 2565 0f34 E816      		cp r14,r24
 2566 0f36 F104      		cpc r15,__zero_reg__
 2567 0f38 01F0      		breq .L184
 2568               	.L179:
 2569 0f3a F501      		movw r30,r10
 2570 0f3c D601      		movw r26,r12
 2571 0f3e 00C0      		rjmp .L182
 2572               	.L184:
 2573               	/* epilogue start */
 2574               	.LM263:
 2575 0f40 C058      		subi r28,lo8(-(128))
 2576 0f42 DF4F      		sbci r29,hi8(-(128))
 2577 0f44 0FB6      		in __tmp_reg__,__SREG__
 2578 0f46 F894      		cli
 2579 0f48 DEBF      		out __SP_H__,r29
 2580 0f4a 0FBE      		out __SREG__,__tmp_reg__
 2581 0f4c CDBF      		out __SP_L__,r28
 2582 0f4e CF91      		pop r28
 2583 0f50 DF91      		pop r29
 2584 0f52 1F91      		pop r17
 2585 0f54 0F91      		pop r16
 2586 0f56 FF90      		pop r15
 2587 0f58 EF90      		pop r14
 2588               	.LVL161:
 2589 0f5a DF90      		pop r13
 2590 0f5c CF90      		pop r12
 2591 0f5e BF90      		pop r11
 2592 0f60 AF90      		pop r10
 2593 0f62 9F90      		pop r9
 2594 0f64 8F90      		pop r8
 2595 0f66 7F90      		pop r7
 2596 0f68 6F90      		pop r6
 2597               	.LVL162:
 2598 0f6a 5F90      		pop r5
 2599 0f6c 4F90      		pop r4
 2600 0f6e 3F90      		pop r3
 2601               	.LVL163:
 2602 0f70 0895      		ret
 2603               	.LFE18:
 2605               	.global	effect_z_updown_move
 2607               	effect_z_updown_move:
 2608               	.LFB9:
 2609               	.LM264:
 2610               	.LVL164:
 2611               	/* prologue: function */
 2612               	/* frame size = 0 */
 2613 0f72 AC01      		movw r20,r24
 2614               	.LVL165:
 2615               	.LM265:
 2616 0f74 DC01      		movw r26,r24
 2617 0f76 FB01      		movw r30,r22
 2618               	.LVL166:
 2619 0f78 20E0      		ldi r18,lo8(0)
 2620 0f7a 30E0      		ldi r19,hi8(0)
 2621               	.LVL167:
 2622               	.L192:
 2623               	.LM266:
 2624 0f7c 9C91      		ld r25,X
 2625 0f7e 8081      		ld r24,Z
 2626 0f80 9817      		cp r25,r24
 2627 0f82 00F4      		brsh .L190
 2628               	.LM267:
 2629 0f84 9F5F      		subi r25,lo8(-(1))
 2630 0f86 9C93      		st X,r25
 2631               	.L190:
 2632               	.LM268:
 2633 0f88 9C91      		ld r25,X
 2634 0f8a 8081      		ld r24,Z
 2635 0f8c 8917      		cp r24,r25
 2636 0f8e 00F4      		brsh .L191
 2637               	.LM269:
 2638 0f90 9150      		subi r25,lo8(-(-1))
 2639 0f92 9C93      		st X,r25
 2640               	.L191:
 2641               	.LM270:
 2642 0f94 2F5F      		subi r18,lo8(-(1))
 2643 0f96 3F4F      		sbci r19,hi8(-(1))
 2644 0f98 1196      		adiw r26,1
 2645 0f9a 3196      		adiw r30,1
 2646 0f9c 2034      		cpi r18,64
 2647 0f9e 3105      		cpc r19,__zero_reg__
 2648 0fa0 01F4      		brne .L192
 2649               	.LM271:
 2650 0fa2 8AE7      		ldi r24,lo8(122)
 2651 0fa4 BA01      		movw r22,r20
 2652 0fa6 40E0      		ldi r20,lo8(0)
 2653 0fa8 50E0      		ldi r21,hi8(0)
 2654 0faa 0E94 0000 		call draw_positions_axis
 2655               	.LVL168:
 2656               	/* epilogue start */
 2657               	.LM272:
 2658 0fae 0895      		ret
 2659               	.LFE9:
 2661               	.global	effect_z_updown
 2663               	effect_z_updown:
 2664               	.LFB8:
 2665               	.LM273:
 2666               	.LVL169:
 2667 0fb0 2F92      		push r2
 2668 0fb2 3F92      		push r3
 2669 0fb4 4F92      		push r4
 2670 0fb6 5F92      		push r5
 2671 0fb8 6F92      		push r6
 2672 0fba 7F92      		push r7
 2673 0fbc 8F92      		push r8
 2674 0fbe 9F92      		push r9
 2675 0fc0 AF92      		push r10
 2676 0fc2 BF92      		push r11
 2677 0fc4 CF92      		push r12
 2678 0fc6 DF92      		push r13
 2679 0fc8 EF92      		push r14
 2680 0fca FF92      		push r15
 2681 0fcc 0F93      		push r16
 2682 0fce 1F93      		push r17
 2683 0fd0 DF93      		push r29
 2684 0fd2 CF93      		push r28
 2685 0fd4 CDB7      		in r28,__SP_L__
 2686 0fd6 DEB7      		in r29,__SP_H__
 2687 0fd8 C058      		subi r28,lo8(-(-128))
 2688 0fda D040      		sbci r29,hi8(-(-128))
 2689 0fdc 0FB6      		in __tmp_reg__,__SREG__
 2690 0fde F894      		cli
 2691 0fe0 DEBF      		out __SP_H__,r29
 2692 0fe2 0FBE      		out __SREG__,__tmp_reg__
 2693 0fe4 CDBF      		out __SP_L__,r28
 2694               	/* prologue: function */
 2695               	/* frame size = 128 */
 2696 0fe6 2C01      		movw r4,r24
 2697 0fe8 7B01      		movw r14,r22
 2698               	.LM274:
 2699 0fea 00E0      		ldi r16,lo8(0)
 2700 0fec 10E0      		ldi r17,hi8(0)
 2701               	.LVL170:
 2702               	.LM275:
 2703 0fee 5E01      		movw r10,r28
 2704 0ff0 0894      		sec
 2705 0ff2 A11C      		adc r10,__zero_reg__
 2706 0ff4 B11C      		adc r11,__zero_reg__
 2707 0ff6 E4E0      		ldi r30,lo8(4)
 2708 0ff8 9E2E      		mov r9,r30
 2709               	.LM276:
 2710 0ffa 71E4      		ldi r23,lo8(65)
 2711 0ffc C72E      		mov r12,r23
 2712 0ffe D12C      		mov r13,__zero_reg__
 2713 1000 CC0E      		add r12,r28
 2714 1002 DD1E      		adc r13,r29
 2715               	.LVL171:
 2716               	.L196:
 2717               	.LM277:
 2718 1004 F501      		movw r30,r10
 2719 1006 E00F      		add r30,r16
 2720 1008 F11F      		adc r31,r17
 2721 100a 9082      		st Z,r9
 2722               	.LM278:
 2723 100c 0E94 0000 		call rand
 2724 1010 F601      		movw r30,r12
 2725 1012 E00F      		add r30,r16
 2726 1014 F11F      		adc r31,r17
 2727 1016 68E0      		ldi r22,lo8(8)
 2728 1018 70E0      		ldi r23,hi8(8)
 2729 101a 0E94 0000 		call __divmodhi4
 2730 101e 8083      		st Z,r24
 2731               	.LM279:
 2732 1020 0F5F      		subi r16,lo8(-(1))
 2733 1022 1F4F      		sbci r17,hi8(-(1))
 2734 1024 0034      		cpi r16,64
 2735 1026 1105      		cpc r17,__zero_reg__
 2736 1028 01F4      		brne .L196
 2737 102a 00E0      		ldi r16,lo8(0)
 2738 102c 10E0      		ldi r17,hi8(0)
 2739               	.LVL172:
 2740               	.LM280:
 2741 102e 61E4      		ldi r22,lo8(65)
 2742 1030 A62E      		mov r10,r22
 2743 1032 B12C      		mov r11,__zero_reg__
 2744 1034 AC0E      		add r10,r28
 2745 1036 BD1E      		adc r11,r29
 2746 1038 6E01      		movw r12,r28
 2747 103a 0894      		sec
 2748 103c C11C      		adc r12,__zero_reg__
 2749 103e D11C      		adc r13,__zero_reg__
 2750               	.LM281:
 2751 1040 3701      		movw r6,r14
 2752               	.LVL173:
 2753               	.L197:
 2754               	.LM282:
 2755 1042 C601      		movw r24,r12
 2756 1044 B501      		movw r22,r10
 2757 1046 4AE7      		ldi r20,lo8(122)
 2758 1048 0E94 0000 		call effect_z_updown_move
 2759               	.LM283:
 2760 104c C301      		movw r24,r6
 2761 104e 0E94 0000 		call delay_ms
 2762               	.LM284:
 2763 1052 0F5F      		subi r16,lo8(-(1))
 2764 1054 1F4F      		sbci r17,hi8(-(1))
 2765 1056 0830      		cpi r16,8
 2766 1058 1105      		cpc r17,__zero_reg__
 2767 105a 01F4      		brne .L197
 2768               	.LM285:
 2769 105c 5701      		movw r10,r14
 2770               	.LVL174:
 2771 105e AA0C      		lsl r10
 2772 1060 BB1C      		rol r11
 2773 1062 AA0C      		lsl r10
 2774 1064 BB1C      		rol r11
 2775 1066 CC24      		clr r12
 2776 1068 DD24      		clr r13
 2777               	.LVL175:
 2778               	.LM286:
 2779 106a 41E4      		ldi r20,lo8(65)
 2780 106c 842E      		mov r8,r20
 2781 106e 912C      		mov r9,__zero_reg__
 2782 1070 8C0E      		add r8,r28
 2783 1072 9D1E      		adc r9,r29
 2784 1074 1E01      		movw r2,r28
 2785 1076 0894      		sec
 2786 1078 211C      		adc r2,__zero_reg__
 2787 107a 311C      		adc r3,__zero_reg__
 2788 107c 00C0      		rjmp .L198
 2789               	.LVL176:
 2790               	.L201:
 2791               	.LM287:
 2792 107e 00E0      		ldi r16,lo8(0)
 2793 1080 10E0      		ldi r17,hi8(0)
 2794               	.LVL177:
 2795               	.L199:
 2796               	.LM288:
 2797 1082 C101      		movw r24,r2
 2798 1084 B401      		movw r22,r8
 2799 1086 4AE7      		ldi r20,lo8(122)
 2800 1088 0E94 0000 		call effect_z_updown_move
 2801               	.LM289:
 2802 108c C301      		movw r24,r6
 2803 108e 0E94 0000 		call delay_ms
 2804               	.LM290:
 2805 1092 0F5F      		subi r16,lo8(-(1))
 2806 1094 1F4F      		sbci r17,hi8(-(1))
 2807 1096 0830      		cpi r16,8
 2808 1098 1105      		cpc r17,__zero_reg__
 2809 109a 01F4      		brne .L199
 2810               	.LM291:
 2811 109c C501      		movw r24,r10
 2812 109e 0E94 0000 		call delay_ms
 2813 10a2 EE24      		clr r14
 2814 10a4 FF24      		clr r15
 2815               	.LVL178:
 2816               	.L200:
 2817               	.LM292:
 2818 10a6 0E94 0000 		call rand
 2819 10aa 8C01      		movw r16,r24
 2820               	.LVL179:
 2821 10ac 0E94 0000 		call rand
 2822 10b0 9C01      		movw r18,r24
 2823 10b2 C801      		movw r24,r16
 2824 10b4 60E4      		ldi r22,lo8(64)
 2825 10b6 70E0      		ldi r23,hi8(64)
 2826 10b8 0E94 0000 		call __divmodhi4
 2827 10bc F401      		movw r30,r8
 2828 10be E80F      		add r30,r24
 2829 10c0 F91F      		adc r31,r25
 2830 10c2 C901      		movw r24,r18
 2831 10c4 68E0      		ldi r22,lo8(8)
 2832 10c6 70E0      		ldi r23,hi8(8)
 2833 10c8 0E94 0000 		call __divmodhi4
 2834 10cc 8083      		st Z,r24
 2835               	.LM293:
 2836 10ce 0894      		sec
 2837 10d0 E11C      		adc r14,__zero_reg__
 2838 10d2 F11C      		adc r15,__zero_reg__
 2839 10d4 80E2      		ldi r24,lo8(32)
 2840 10d6 E816      		cp r14,r24
 2841 10d8 F104      		cpc r15,__zero_reg__
 2842 10da 01F4      		brne .L200
 2843               	.LM294:
 2844 10dc 0894      		sec
 2845 10de C11C      		adc r12,__zero_reg__
 2846 10e0 D11C      		adc r13,__zero_reg__
 2847               	.LVL180:
 2848               	.L198:
 2849 10e2 C414      		cp r12,r4
 2850 10e4 D504      		cpc r13,r5
 2851 10e6 04F0      		brlt .L201
 2852               	/* epilogue start */
 2853               	.LM295:
 2854 10e8 C058      		subi r28,lo8(-(128))
 2855 10ea DF4F      		sbci r29,hi8(-(128))
 2856 10ec 0FB6      		in __tmp_reg__,__SREG__
 2857 10ee F894      		cli
 2858 10f0 DEBF      		out __SP_H__,r29
 2859 10f2 0FBE      		out __SREG__,__tmp_reg__
 2860 10f4 CDBF      		out __SP_L__,r28
 2861 10f6 CF91      		pop r28
 2862 10f8 DF91      		pop r29
 2863 10fa 1F91      		pop r17
 2864 10fc 0F91      		pop r16
 2865 10fe FF90      		pop r15
 2866 1100 EF90      		pop r14
 2867               	.LVL181:
 2868 1102 DF90      		pop r13
 2869 1104 CF90      		pop r12
 2870               	.LVL182:
 2871 1106 BF90      		pop r11
 2872 1108 AF90      		pop r10
 2873 110a 9F90      		pop r9
 2874 110c 8F90      		pop r8
 2875 110e 7F90      		pop r7
 2876 1110 6F90      		pop r6
 2877 1112 5F90      		pop r5
 2878 1114 4F90      		pop r4
 2879               	.LVL183:
 2880 1116 3F90      		pop r3
 2881 1118 2F90      		pop r2
 2882 111a 0895      		ret
 2883               	.LFE8:
 2885               	.global	walk_through_walls
 2887               	walk_through_walls:
 2888               	.LFB36:
 2889               	.LM296:
 2890               	.LVL184:
 2891 111c 2F92      		push r2
 2892 111e 3F92      		push r3
 2893 1120 4F92      		push r4
 2894 1122 5F92      		push r5
 2895 1124 6F92      		push r6
 2896 1126 7F92      		push r7
 2897 1128 8F92      		push r8
 2898 112a 9F92      		push r9
 2899 112c AF92      		push r10
 2900 112e BF92      		push r11
 2901 1130 CF92      		push r12
 2902 1132 DF92      		push r13
 2903 1134 EF92      		push r14
 2904 1136 FF92      		push r15
 2905 1138 0F93      		push r16
 2906 113a 1F93      		push r17
 2907 113c CF93      		push r28
 2908 113e DF93      		push r29
 2909               	/* prologue: function */
 2910               	/* frame size = 0 */
 2911 1140 2C01      		movw r4,r24
 2912 1142 1B01      		movw r2,r22
 2913               	.LM297:
 2914 1144 220C      		lsl r2
 2915 1146 331C      		rol r3
 2916 1148 6624      		clr r6
 2917 114a 7724      		clr r7
 2918               	.LVL185:
 2919 114c 00C0      		rjmp .L208
 2920               	.LVL186:
 2921               	.L222:
 2922               	.LM298:
 2923 114e C114      		cp r12,__zero_reg__
 2924 1150 D104      		cpc r13,__zero_reg__
 2925 1152 01F4      		brne .L209
 2926               	.LM299:
 2927 1154 8114      		cp r8,__zero_reg__
 2928 1156 9104      		cpc r9,__zero_reg__
 2929 1158 01F4      		brne .L210
 2930 115a C801      		movw r24,r16
 2931 115c 60E0      		ldi r22,lo8(0)
 2932 115e 70E0      		ldi r23,hi8(0)
 2933               	.LVL187:
 2934 1160 AE01      		movw r20,r28
 2935 1162 0E94 0000 		call setvoxel
 2936 1166 00C0      		rjmp .L211
 2937               	.LVL188:
 2938               	.L210:
 2939               	.LM300:
 2940 1168 C801      		movw r24,r16
 2941 116a 60E0      		ldi r22,lo8(0)
 2942 116c 70E0      		ldi r23,hi8(0)
 2943               	.LVL189:
 2944 116e AE01      		movw r20,r28
 2945 1170 0E94 0000 		call clrvoxel
 2946               	.L211:
 2947               	.LM301:
 2948 1174 C201      		movw r24,r4
 2949 1176 0E94 0000 		call delay_ms
 2950 117a 00C0      		rjmp .L212
 2951               	.LVL190:
 2952               	.L209:
 2953               	.LM302:
 2954 117c 81E0      		ldi r24,lo8(1)
 2955 117e C816      		cp r12,r24
 2956 1180 D104      		cpc r13,__zero_reg__
 2957 1182 01F4      		brne .L213
 2958               	.LM303:
 2959 1184 8114      		cp r8,__zero_reg__
 2960 1186 9104      		cpc r9,__zero_reg__
 2961 1188 01F4      		brne .L214
 2962 118a 87E0      		ldi r24,lo8(7)
 2963 118c 90E0      		ldi r25,hi8(7)
 2964 118e B501      		movw r22,r10
 2965               	.LVL191:
 2966 1190 00C0      		rjmp .L232
 2967               	.LVL192:
 2968               	.L214:
 2969               	.LM304:
 2970 1192 87E0      		ldi r24,lo8(7)
 2971 1194 90E0      		ldi r25,hi8(7)
 2972 1196 B501      		movw r22,r10
 2973               	.LVL193:
 2974 1198 00C0      		rjmp .L231
 2975               	.LVL194:
 2976               	.L213:
 2977               	.LM305:
 2978 119a 82E0      		ldi r24,lo8(2)
 2979 119c C816      		cp r12,r24
 2980 119e D104      		cpc r13,__zero_reg__
 2981 11a0 01F4      		brne .L217
 2982               	.LM306:
 2983 11a2 8114      		cp r8,__zero_reg__
 2984 11a4 9104      		cpc r9,__zero_reg__
 2985 11a6 01F4      		brne .L218
 2986 11a8 C701      		movw r24,r14
 2987 11aa 67E0      		ldi r22,lo8(7)
 2988 11ac 70E0      		ldi r23,hi8(7)
 2989               	.LVL195:
 2990               	.L232:
 2991 11ae AE01      		movw r20,r28
 2992 11b0 0E94 0000 		call setvoxel
 2993 11b4 00C0      		rjmp .L219
 2994               	.LVL196:
 2995               	.L218:
 2996               	.LM307:
 2997 11b6 C701      		movw r24,r14
 2998 11b8 67E0      		ldi r22,lo8(7)
 2999 11ba 70E0      		ldi r23,hi8(7)
 3000               	.LVL197:
 3001               	.L231:
 3002 11bc AE01      		movw r20,r28
 3003 11be 0E94 0000 		call clrvoxel
 3004               	.L219:
 3005               	.LM308:
 3006 11c2 C201      		movw r24,r4
 3007 11c4 0E94 0000 		call delay_ms
 3008               	.LM309:
 3009 11c8 0630      		cpi r16,6
 3010 11ca 1105      		cpc r17,__zero_reg__
 3011 11cc 01F4      		brne .L212
 3012 11ce 00C0      		rjmp .L216
 3013               	.LVL198:
 3014               	.L217:
 3015               	.LM310:
 3016 11d0 8114      		cp r8,__zero_reg__
 3017 11d2 9104      		cpc r9,__zero_reg__
 3018 11d4 01F4      		brne .L220
 3019 11d6 80E0      		ldi r24,lo8(0)
 3020 11d8 90E0      		ldi r25,hi8(0)
 3021 11da B701      		movw r22,r14
 3022               	.LVL199:
 3023 11dc AE01      		movw r20,r28
 3024 11de 0E94 0000 		call setvoxel
 3025 11e2 00C0      		rjmp .L221
 3026               	.LVL200:
 3027               	.L220:
 3028               	.LM311:
 3029 11e4 80E0      		ldi r24,lo8(0)
 3030 11e6 90E0      		ldi r25,hi8(0)
 3031 11e8 B701      		movw r22,r14
 3032               	.LVL201:
 3033 11ea AE01      		movw r20,r28
 3034 11ec 0E94 0000 		call clrvoxel
 3035               	.L221:
 3036               	.LM312:
 3037 11f0 C201      		movw r24,r4
 3038 11f2 0E94 0000 		call delay_ms
 3039               	.LM313:
 3040 11f6 0530      		cpi r16,5
 3041 11f8 1105      		cpc r17,__zero_reg__
 3042 11fa 01F0      		breq .L216
 3043               	.L212:
 3044               	.LM314:
 3045 11fc 0F5F      		subi r16,lo8(-(1))
 3046 11fe 1F4F      		sbci r17,hi8(-(1))
 3047 1200 0894      		sec
 3048 1202 A11C      		adc r10,__zero_reg__
 3049 1204 B11C      		adc r11,__zero_reg__
 3050 1206 0894      		sec
 3051 1208 E108      		sbc r14,__zero_reg__
 3052 120a F108      		sbc r15,__zero_reg__
 3053 120c 0830      		cpi r16,8
 3054 120e 1105      		cpc r17,__zero_reg__
 3055 1210 01F0      		breq .+2
 3056 1212 00C0      		rjmp .L222
 3057               	.L216:
 3058               	.LM315:
 3059 1214 0894      		sec
 3060 1216 C11C      		adc r12,__zero_reg__
 3061 1218 D11C      		adc r13,__zero_reg__
 3062 121a 84E0      		ldi r24,lo8(4)
 3063 121c C816      		cp r12,r24
 3064 121e D104      		cpc r13,__zero_reg__
 3065 1220 01F0      		breq .L223
 3066               	.LVL202:
 3067               	.L225:
 3068 1222 00E0      		ldi r16,lo8(0)
 3069 1224 10E0      		ldi r17,hi8(0)
 3070 1226 B1E0      		ldi r27,lo8(1)
 3071 1228 AB2E      		mov r10,r27
 3072 122a B12C      		mov r11,__zero_reg__
 3073 122c A6E0      		ldi r26,lo8(6)
 3074 122e EA2E      		mov r14,r26
 3075 1230 F12C      		mov r15,__zero_reg__
 3076 1232 00C0      		rjmp .L222
 3077               	.LVL203:
 3078               	.L223:
 3079               	.LM316:
 3080 1234 2196      		adiw r28,1
 3081 1236 C830      		cpi r28,8
 3082 1238 D105      		cpc r29,__zero_reg__
 3083 123a 01F0      		breq .L224
 3084               	.LVL204:
 3085               	.L227:
 3086 123c CC24      		clr r12
 3087 123e DD24      		clr r13
 3088 1240 00C0      		rjmp .L225
 3089               	.LVL205:
 3090               	.L224:
 3091               	.LM317:
 3092 1242 0894      		sec
 3093 1244 611C      		adc r6,__zero_reg__
 3094 1246 711C      		adc r7,__zero_reg__
 3095               	.LVL206:
 3096               	.L208:
 3097 1248 6214      		cp r6,r2
 3098 124a 7304      		cpc r7,r3
 3099 124c 04F4      		brge .L228
 3100 124e C0E0      		ldi r28,lo8(0)
 3101 1250 D0E0      		ldi r29,hi8(0)
 3102 1252 F1E0      		ldi r31,lo8(1)
 3103 1254 8F2E      		mov r8,r31
 3104 1256 912C      		mov r9,__zero_reg__
 3105 1258 8620      		and r8,r6
 3106 125a 9720      		and r9,r7
 3107 125c 00C0      		rjmp .L227
 3108               	.L228:
 3109               	/* epilogue start */
 3110               	.LM318:
 3111 125e DF91      		pop r29
 3112 1260 CF91      		pop r28
 3113               	.LVL207:
 3114 1262 1F91      		pop r17
 3115 1264 0F91      		pop r16
 3116               	.LVL208:
 3117 1266 FF90      		pop r15
 3118 1268 EF90      		pop r14
 3119 126a DF90      		pop r13
 3120 126c CF90      		pop r12
 3121               	.LVL209:
 3122 126e BF90      		pop r11
 3123 1270 AF90      		pop r10
 3124 1272 9F90      		pop r9
 3125 1274 8F90      		pop r8
 3126 1276 7F90      		pop r7
 3127 1278 6F90      		pop r6
 3128               	.LVL210:
 3129 127a 5F90      		pop r5
 3130 127c 4F90      		pop r4
 3131               	.LVL211:
 3132 127e 3F90      		pop r3
 3133 1280 2F90      		pop r2
 3134 1282 0895      		ret
 3135               	.LFE36:
 3137               	.global	filled_box_draw
 3139               	filled_box_draw:
 3140               	.LFB30:
 3141               	.LM319:
 3142               	.LVL212:
 3143 1284 3F92      		push r3
 3144 1286 4F92      		push r4
 3145 1288 5F92      		push r5
 3146 128a 6F92      		push r6
 3147 128c 7F92      		push r7
 3148 128e 8F92      		push r8
 3149 1290 9F92      		push r9
 3150 1292 AF92      		push r10
 3151 1294 BF92      		push r11
 3152 1296 CF92      		push r12
 3153 1298 DF92      		push r13
 3154 129a EF92      		push r14
 3155 129c FF92      		push r15
 3156 129e 0F93      		push r16
 3157               	.LVL213:
 3158 12a0 1F93      		push r17
 3159 12a2 CF93      		push r28
 3160 12a4 DF93      		push r29
 3161               	/* prologue: function */
 3162               	/* frame size = 0 */
 3163 12a6 382E      		mov r3,r24
 3164 12a8 492E      		mov r4,r25
 3165               	.LVL214:
 3166 12aa 3B01      		movw r6,r22
 3167 12ac 4A01      		movw r8,r20
 3168 12ae C22E      		mov r12,r18
 3169 12b0 502E      		mov r5,r16
 3170               	.LVL215:
 3171               	.LM320:
 3172 12b2 DD24      		clr r13
 3173               	.LVL216:
 3174 12b4 00C0      		rjmp .L234
 3175               	.LVL217:
 3176               	.L237:
 3177               	.LM321:
 3178 12b6 5520      		tst r5
 3179 12b8 01F0      		breq .L235
 3180 12ba CE01      		movw r24,r28
 3181 12bc B701      		movw r22,r14
 3182 12be A501      		movw r20,r10
 3183 12c0 0E94 0000 		call setvoxel
 3184 12c4 00C0      		rjmp .L236
 3185               	.LVL218:
 3186               	.L235:
 3187               	.LM322:
 3188 12c6 CE01      		movw r24,r28
 3189 12c8 B701      		movw r22,r14
 3190 12ca A501      		movw r20,r10
 3191 12cc 0E94 0000 		call clrvoxel
 3192               	.L236:
 3193               	.LM323:
 3194 12d0 1F5F      		subi r17,lo8(-(1))
 3195 12d2 2196      		adiw r28,1
 3196               	.LVL219:
 3197               	.L239:
 3198 12d4 1C15      		cp r17,r12
 3199 12d6 00F0      		brlo .L237
 3200               	.LM324:
 3201 12d8 0F5F      		subi r16,lo8(-(1))
 3202               	.LVL220:
 3203               	.L241:
 3204 12da 0C15      		cp r16,r12
 3205 12dc 00F4      		brsh .L238
 3206 12de 832D      		mov r24,r3
 3207 12e0 942D      		mov r25,r4
 3208 12e2 9C01      		movw r18,r24
 3209 12e4 E901      		movw r28,r18
 3210 12e6 10E0      		ldi r17,lo8(0)
 3211               	.LM325:
 3212 12e8 7301      		movw r14,r6
 3213 12ea E00E      		add r14,r16
 3214 12ec F11C      		adc r15,__zero_reg__
 3215 12ee 00C0      		rjmp .L239
 3216               	.LVL221:
 3217               	.L238:
 3218               	.LM326:
 3219 12f0 D394      		inc r13
 3220               	.LVL222:
 3221               	.L234:
 3222 12f2 DC14      		cp r13,r12
 3223 12f4 00F4      		brsh .L242
 3224 12f6 00E0      		ldi r16,lo8(0)
 3225               	.LM327:
 3226 12f8 5401      		movw r10,r8
 3227 12fa AD0C      		add r10,r13
 3228 12fc B11C      		adc r11,__zero_reg__
 3229 12fe 00C0      		rjmp .L241
 3230               	.LVL223:
 3231               	.L242:
 3232               	/* epilogue start */
 3233               	.LM328:
 3234 1300 DF91      		pop r29
 3235 1302 CF91      		pop r28
 3236 1304 1F91      		pop r17
 3237               	.LVL224:
 3238 1306 0F91      		pop r16
 3239               	.LVL225:
 3240 1308 FF90      		pop r15
 3241 130a EF90      		pop r14
 3242 130c DF90      		pop r13
 3243               	.LVL226:
 3244 130e CF90      		pop r12
 3245               	.LVL227:
 3246 1310 BF90      		pop r11
 3247 1312 AF90      		pop r10
 3248 1314 9F90      		pop r9
 3249 1316 8F90      		pop r8
 3250               	.LVL228:
 3251 1318 7F90      		pop r7
 3252 131a 6F90      		pop r6
 3253               	.LVL229:
 3254 131c 5F90      		pop r5
 3255               	.LVL230:
 3256 131e 4F90      		pop r4
 3257               	.LVL231:
 3258 1320 3F90      		pop r3
 3259               	.LVL232:
 3260 1322 0895      		ret
 3261               	.LFE30:
 3263               	.global	moving_boxes
 3265               	moving_boxes:
 3266               	.LFB29:
 3267               	.LM329:
 3268               	.LVL233:
 3269 1324 2F92      		push r2
 3270 1326 3F92      		push r3
 3271 1328 4F92      		push r4
 3272 132a 5F92      		push r5
 3273 132c 6F92      		push r6
 3274 132e 7F92      		push r7
 3275 1330 8F92      		push r8
 3276 1332 9F92      		push r9
 3277 1334 AF92      		push r10
 3278 1336 BF92      		push r11
 3279 1338 CF92      		push r12
 3280 133a DF92      		push r13
 3281 133c EF92      		push r14
 3282 133e FF92      		push r15
 3283 1340 0F93      		push r16
 3284 1342 1F93      		push r17
 3285 1344 DF93      		push r29
 3286 1346 CF93      		push r28
 3287 1348 CDB7      		in r28,__SP_L__
 3288 134a DEB7      		in r29,__SP_H__
 3289 134c 2997      		sbiw r28,9
 3290 134e 0FB6      		in __tmp_reg__,__SREG__
 3291 1350 F894      		cli
 3292 1352 DEBF      		out __SP_H__,r29
 3293 1354 0FBE      		out __SREG__,__tmp_reg__
 3294 1356 CDBF      		out __SP_L__,r28
 3295               	/* prologue: function */
 3296               	/* frame size = 9 */
 3297 1358 9D83      		std Y+5,r25
 3298 135a 8C83      		std Y+4,r24
 3299 135c 7F83      		std Y+7,r23
 3300 135e 6E83      		std Y+6,r22
 3301               	.LM330:
 3302 1360 80E0      		ldi r24,lo8(0)
 3303               	.LVL234:
 3304 1362 0E94 0000 		call fill
 3305               	.LVL235:
 3306 1366 1986      		std Y+9,__zero_reg__
 3307 1368 1886      		std Y+8,__zero_reg__
 3308               	.LVL236:
 3309 136a 1B82      		std Y+3,__zero_reg__
 3310               	.LVL237:
 3311 136c 24E0      		ldi r18,lo8(4)
 3312 136e 2A83      		std Y+2,r18
 3313               	.LVL238:
 3314 1370 1982      		std Y+1,__zero_reg__
 3315               	.LVL239:
 3316 1372 2224      		clr r2
 3317               	.LVL240:
 3318 1374 54E0      		ldi r21,lo8(4)
 3319 1376 352E      		mov r3,r21
 3320               	.LVL241:
 3321 1378 44E0      		ldi r20,lo8(4)
 3322 137a 442E      		mov r4,r20
 3323               	.LVL242:
 3324 137c 5524      		clr r5
 3325               	.LVL243:
 3326 137e 6624      		clr r6
 3327               	.LVL244:
 3328 1380 34E0      		ldi r19,lo8(4)
 3329 1382 732E      		mov r7,r19
 3330               	.LVL245:
 3331 1384 9924      		clr r9
 3332 1386 9394      		inc r9
 3333               	.LVL246:
 3334 1388 8824      		clr r8
 3335 138a 8394      		inc r8
 3336               	.LVL247:
 3337 138c AA24      		clr r10
 3338 138e A394      		inc r10
 3339               	.LVL248:
 3340 1390 00C0      		rjmp .L244
 3341               	.LVL249:
 3342               	.L278:
 3343               	.LM331:
 3344 1392 8885      		ldd r24,Y+8
 3345 1394 9985      		ldd r25,Y+9
 3346 1396 1816      		cp __zero_reg__,r24
 3347 1398 1906      		cpc __zero_reg__,r25
 3348 139a 04F0      		brlt .+2
 3349 139c 00C0      		rjmp .L245
 3350               	.LVL250:
 3351               	.L281:
 3352               	.LM332:
 3353 139e 0E94 0000 		call rand
 3354 13a2 63E0      		ldi r22,lo8(3)
 3355 13a4 70E0      		ldi r23,hi8(3)
 3356 13a6 0E94 0000 		call __divmodhi4
 3357 13aa 982E      		mov r9,r24
 3358               	.LM333:
 3359 13ac 8816      		cp r8,r24
 3360 13ae 01F0      		breq .L281
 3361               	.LVL251:
 3362               	.L280:
 3363               	.LM334:
 3364 13b0 0E94 0000 		call rand
 3365 13b4 66E0      		ldi r22,lo8(6)
 3366 13b6 70E0      		ldi r23,hi8(6)
 3367 13b8 0E94 0000 		call __divmodhi4
 3368 13bc E82E      		mov r14,r24
 3369               	.LVL252:
 3370               	.LM335:
 3371 13be A816      		cp r10,r24
 3372 13c0 01F0      		breq .L280
 3373               	.LVL253:
 3374               	.LM336:
 3375 13c2 9920      		tst r9
 3376 13c4 01F4      		brne .L248
 3377 13c6 FB80      		ldd r15,Y+3
 3378               	.LVL254:
 3379 13c8 022D      		mov r16,r2
 3380 13ca 152D      		mov r17,r5
 3381 13cc 00C0      		rjmp .L249
 3382               	.LVL255:
 3383               	.L248:
 3384               	.LM337:
 3385 13ce 91E0      		ldi r25,lo8(1)
 3386 13d0 9916      		cp r9,r25
 3387 13d2 01F0      		breq .L250
 3388 13d4 F980      		ldd r15,Y+1
 3389               	.LVL256:
 3390 13d6 042D      		mov r16,r4
 3391 13d8 172D      		mov r17,r7
 3392 13da 00C0      		rjmp .L249
 3393               	.LVL257:
 3394               	.L250:
 3395 13dc FA80      		ldd r15,Y+2
 3396               	.LVL258:
 3397 13de 032D      		mov r16,r3
 3398 13e0 162D      		mov r17,r6
 3399               	.L249:
 3400               	.LM338:
 3401 13e2 EE20      		tst r14
 3402 13e4 01F4      		brne .L251
 3403               	.LVL259:
 3404 13e6 8F2D      		mov r24,r15
 3405 13e8 9927      		clr r25
 3406 13ea 87FD      		sbrc r24,7
 3407 13ec 9095      		com r25
 3408               	.LVL260:
 3409 13ee 602F      		mov r22,r16
 3410 13f0 7727      		clr r23
 3411 13f2 67FD      		sbrc r22,7
 3412 13f4 7095      		com r23
 3413               	.LVL261:
 3414 13f6 412F      		mov r20,r17
 3415 13f8 5527      		clr r21
 3416 13fa 47FD      		sbrc r20,7
 3417 13fc 5095      		com r21
 3418               	.LVL262:
 3419 13fe 0596      		adiw r24,5
 3420               	.LVL263:
 3421 1400 0E94 0000 		call getvoxel
 3422               	.LVL264:
 3423 1404 8823      		tst r24
 3424 1406 01F0      		breq .+2
 3425 1408 00C0      		rjmp .L257
 3426 140a E3E0      		ldi r30,lo8(3)
 3427 140c EF15      		cp r30,r15
 3428               	.LVL265:
 3429 140e 04F4      		brge .+2
 3430 1410 00C0      		rjmp .L257
 3431 1412 892C      		mov r8,r9
 3432 1414 AA24      		clr r10
 3433 1416 BB24      		clr r11
 3434 1418 B394      		inc r11
 3435 141a CC24      		clr r12
 3436 141c DD24      		clr r13
 3437 141e 00C0      		rjmp .L285
 3438               	.LVL266:
 3439               	.L251:
 3440               	.LM339:
 3441 1420 F1E0      		ldi r31,lo8(1)
 3442 1422 EF16      		cp r14,r31
 3443 1424 01F4      		brne .L254
 3444 1426 602F      		mov r22,r16
 3445 1428 7727      		clr r23
 3446 142a 67FD      		sbrc r22,7
 3447 142c 7095      		com r23
 3448               	.LVL267:
 3449 142e 6150      		subi r22,lo8(-(-1))
 3450 1430 7040      		sbci r23,hi8(-(-1))
 3451               	.LVL268:
 3452 1432 412F      		mov r20,r17
 3453 1434 5527      		clr r21
 3454 1436 47FD      		sbrc r20,7
 3455 1438 5095      		com r21
 3456               	.LVL269:
 3457 143a 8F2D      		mov r24,r15
 3458 143c 9927      		clr r25
 3459 143e 87FD      		sbrc r24,7
 3460 1440 9095      		com r25
 3461 1442 0E94 0000 		call getvoxel
 3462               	.LVL270:
 3463 1446 8823      		tst r24
 3464 1448 01F0      		breq .+2
 3465 144a 00C0      		rjmp .L257
 3466 144c 1016      		cp __zero_reg__,r16
 3467               	.LVL271:
 3468 144e 04F0      		brlt .+2
 3469 1450 00C0      		rjmp .L257
 3470 1452 892C      		mov r8,r9
 3471 1454 AA24      		clr r10
 3472 1456 A394      		inc r10
 3473 1458 BB24      		clr r11
 3474 145a CC24      		clr r12
 3475 145c C394      		inc r12
 3476 145e 00C0      		rjmp .L286
 3477               	.LVL272:
 3478               	.L254:
 3479               	.LM340:
 3480 1460 22E0      		ldi r18,lo8(2)
 3481 1462 E216      		cp r14,r18
 3482 1464 01F4      		brne .L256
 3483 1466 8F2D      		mov r24,r15
 3484 1468 9927      		clr r25
 3485 146a 87FD      		sbrc r24,7
 3486 146c 9095      		com r25
 3487               	.LVL273:
 3488 146e 602F      		mov r22,r16
 3489 1470 7727      		clr r23
 3490 1472 67FD      		sbrc r22,7
 3491 1474 7095      		com r23
 3492               	.LVL274:
 3493 1476 412F      		mov r20,r17
 3494 1478 5527      		clr r21
 3495 147a 47FD      		sbrc r20,7
 3496 147c 5095      		com r21
 3497               	.LVL275:
 3498 147e 0197      		sbiw r24,1
 3499               	.LVL276:
 3500 1480 0E94 0000 		call getvoxel
 3501               	.LVL277:
 3502 1484 8823      		tst r24
 3503 1486 01F0      		breq .+2
 3504 1488 00C0      		rjmp .L257
 3505 148a 1F14      		cp __zero_reg__,r15
 3506               	.LVL278:
 3507 148c 04F0      		brlt .+2
 3508 148e 00C0      		rjmp .L257
 3509 1490 892C      		mov r8,r9
 3510 1492 22E0      		ldi r18,lo8(2)
 3511 1494 A22E      		mov r10,r18
 3512 1496 BB24      		clr r11
 3513 1498 CC24      		clr r12
 3514 149a DD24      		clr r13
 3515 149c D394      		inc r13
 3516 149e 00C0      		rjmp .L287
 3517               	.LVL279:
 3518               	.L256:
 3519               	.LM341:
 3520 14a0 33E0      		ldi r19,lo8(3)
 3521 14a2 E316      		cp r14,r19
 3522 14a4 01F4      		brne .L252
 3523 14a6 602F      		mov r22,r16
 3524 14a8 7727      		clr r23
 3525 14aa 67FD      		sbrc r22,7
 3526 14ac 7095      		com r23
 3527               	.LVL280:
 3528 14ae 6B5F      		subi r22,lo8(-(5))
 3529 14b0 7F4F      		sbci r23,hi8(-(5))
 3530               	.LVL281:
 3531 14b2 412F      		mov r20,r17
 3532 14b4 5527      		clr r21
 3533 14b6 47FD      		sbrc r20,7
 3534 14b8 5095      		com r21
 3535               	.LVL282:
 3536 14ba 8F2D      		mov r24,r15
 3537 14bc 9927      		clr r25
 3538 14be 87FD      		sbrc r24,7
 3539 14c0 9095      		com r25
 3540 14c2 0E94 0000 		call getvoxel
 3541               	.LVL283:
 3542 14c6 8823      		tst r24
 3543 14c8 01F0      		breq .+2
 3544 14ca 00C0      		rjmp .L257
 3545 14cc 0430      		cpi r16,lo8(4)
 3546               	.LVL284:
 3547 14ce 04F0      		brlt .+2
 3548 14d0 00C0      		rjmp .L257
 3549 14d2 892C      		mov r8,r9
 3550 14d4 93E0      		ldi r25,lo8(3)
 3551 14d6 A92E      		mov r10,r25
 3552 14d8 BB24      		clr r11
 3553 14da CC24      		clr r12
 3554 14dc DD24      		clr r13
 3555 14de EE24      		clr r14
 3556 14e0 E394      		inc r14
 3557               	.LVL285:
 3558 14e2 00C0      		rjmp .L285
 3559               	.LVL286:
 3560               	.L252:
 3561               	.LM342:
 3562 14e4 84E0      		ldi r24,lo8(4)
 3563 14e6 E816      		cp r14,r24
 3564 14e8 01F4      		brne .L255
 3565 14ea 602F      		mov r22,r16
 3566 14ec 7727      		clr r23
 3567 14ee 67FD      		sbrc r22,7
 3568 14f0 7095      		com r23
 3569               	.LVL287:
 3570 14f2 412F      		mov r20,r17
 3571 14f4 5527      		clr r21
 3572 14f6 47FD      		sbrc r20,7
 3573 14f8 5095      		com r21
 3574               	.LVL288:
 3575 14fa 4150      		subi r20,lo8(-(-1))
 3576 14fc 5040      		sbci r21,hi8(-(-1))
 3577               	.LVL289:
 3578 14fe 8F2D      		mov r24,r15
 3579 1500 9927      		clr r25
 3580 1502 87FD      		sbrc r24,7
 3581 1504 9095      		com r25
 3582 1506 0E94 0000 		call getvoxel
 3583               	.LVL290:
 3584 150a 8823      		tst r24
 3585 150c 01F4      		brne .L257
 3586 150e 1116      		cp __zero_reg__,r17
 3587               	.LVL291:
 3588 1510 04F4      		brge .L257
 3589 1512 892C      		mov r8,r9
 3590 1514 84E0      		ldi r24,lo8(4)
 3591 1516 A82E      		mov r10,r24
 3592 1518 BB24      		clr r11
 3593 151a CC24      		clr r12
 3594 151c DD24      		clr r13
 3595 151e EE24      		clr r14
 3596               	.LVL292:
 3597 1520 FF24      		clr r15
 3598 1522 F394      		inc r15
 3599               	.LVL293:
 3600 1524 00C0      		rjmp .L253
 3601               	.LVL294:
 3602               	.L255:
 3603               	.LM343:
 3604 1526 95E0      		ldi r25,lo8(5)
 3605 1528 E916      		cp r14,r25
 3606 152a 01F4      		brne .L257
 3607 152c 602F      		mov r22,r16
 3608 152e 7727      		clr r23
 3609 1530 67FD      		sbrc r22,7
 3610 1532 7095      		com r23
 3611               	.LVL295:
 3612 1534 412F      		mov r20,r17
 3613 1536 5527      		clr r21
 3614 1538 47FD      		sbrc r20,7
 3615 153a 5095      		com r21
 3616               	.LVL296:
 3617 153c 4B5F      		subi r20,lo8(-(5))
 3618 153e 5F4F      		sbci r21,hi8(-(5))
 3619               	.LVL297:
 3620 1540 8F2D      		mov r24,r15
 3621 1542 9927      		clr r25
 3622 1544 87FD      		sbrc r24,7
 3623 1546 9095      		com r25
 3624 1548 0E94 0000 		call getvoxel
 3625               	.LVL298:
 3626 154c 8823      		tst r24
 3627 154e 01F4      		brne .L257
 3628 1550 1430      		cpi r17,lo8(4)
 3629               	.LVL299:
 3630 1552 04F4      		brge .L257
 3631 1554 892C      		mov r8,r9
 3632 1556 05E0      		ldi r16,lo8(5)
 3633 1558 A02E      		mov r10,r16
 3634 155a 00C0      		rjmp .L245
 3635               	.LVL300:
 3636               	.L257:
 3637               	.LM344:
 3638 155c E885      		ldd r30,Y+8
 3639 155e F985      		ldd r31,Y+9
 3640 1560 3197      		sbiw r30,1
 3641 1562 F987      		std Y+9,r31
 3642 1564 E887      		std Y+8,r30
 3643               	.LVL301:
 3644 1566 892C      		mov r8,r9
 3645 1568 AE2C      		mov r10,r14
 3646 156a 00C0      		rjmp .L258
 3647               	.LVL302:
 3648               	.L245:
 3649               	.LM345:
 3650 156c BB24      		clr r11
 3651 156e CC24      		clr r12
 3652               	.L286:
 3653 1570 DD24      		clr r13
 3654               	.L287:
 3655 1572 EE24      		clr r14
 3656               	.LVL303:
 3657               	.L285:
 3658 1574 FF24      		clr r15
 3659               	.LVL304:
 3660               	.L253:
 3661 1576 13E0      		ldi r17,lo8(3)
 3662               	.LVL305:
 3663               	.L277:
 3664 1578 84E0      		ldi r24,lo8(4)
 3665               	.LVL306:
 3666 157a 811B      		sub r24,r17
 3667               	.LM346:
 3668 157c 2885      		ldd r18,Y+8
 3669 157e 3985      		ldd r19,Y+9
 3670 1580 1216      		cp __zero_reg__,r18
 3671 1582 1306      		cpc __zero_reg__,r19
 3672 1584 04F0      		brlt .+2
 3673 1586 00C0      		rjmp .L259
 3674               	.LM347:
 3675 1588 9920      		tst r9
 3676 158a 01F4      		brne .L260
 3677               	.LM348:
 3678 158c BB20      		tst r11
 3679 158e 01F0      		breq .L261
 3680 1590 8B83      		std Y+3,r24
 3681               	.LVL307:
 3682 1592 00C0      		rjmp .L259
 3683               	.L261:
 3684               	.LM349:
 3685 1594 CC20      		tst r12
 3686 1596 01F0      		breq .L262
 3687 1598 212E      		mov r2,r17
 3688 159a 00C0      		rjmp .L259
 3689               	.L262:
 3690               	.LM350:
 3691 159c DD20      		tst r13
 3692 159e 01F0      		breq .L263
 3693 15a0 1B83      		std Y+3,r17
 3694               	.LVL308:
 3695 15a2 00C0      		rjmp .L259
 3696               	.L263:
 3697               	.LM351:
 3698 15a4 EE20      		tst r14
 3699 15a6 01F0      		breq .L264
 3700 15a8 282E      		mov r2,r24
 3701 15aa 00C0      		rjmp .L259
 3702               	.L264:
 3703               	.LM352:
 3704 15ac FF20      		tst r15
 3705 15ae 01F4      		brne .L265
 3706 15b0 582E      		mov r5,r24
 3707 15b2 00C0      		rjmp .L259
 3708               	.L265:
 3709 15b4 512E      		mov r5,r17
 3710 15b6 00C0      		rjmp .L259
 3711               	.L260:
 3712               	.LM353:
 3713 15b8 31E0      		ldi r19,lo8(1)
 3714 15ba 9316      		cp r9,r19
 3715 15bc 01F4      		brne .L266
 3716               	.LM354:
 3717 15be BB20      		tst r11
 3718 15c0 01F0      		breq .L267
 3719 15c2 8A83      		std Y+2,r24
 3720               	.LVL309:
 3721 15c4 00C0      		rjmp .L259
 3722               	.L267:
 3723               	.LM355:
 3724 15c6 CC20      		tst r12
 3725 15c8 01F0      		breq .L268
 3726 15ca 312E      		mov r3,r17
 3727 15cc 00C0      		rjmp .L259
 3728               	.L268:
 3729               	.LM356:
 3730 15ce DD20      		tst r13
 3731 15d0 01F0      		breq .L269
 3732 15d2 1A83      		std Y+2,r17
 3733               	.LVL310:
 3734 15d4 00C0      		rjmp .L259
 3735               	.L269:
 3736               	.LM357:
 3737 15d6 EE20      		tst r14
 3738 15d8 01F0      		breq .L270
 3739 15da 382E      		mov r3,r24
 3740 15dc 00C0      		rjmp .L259
 3741               	.L270:
 3742               	.LM358:
 3743 15de FF20      		tst r15
 3744 15e0 01F4      		brne .L271
 3745 15e2 682E      		mov r6,r24
 3746 15e4 00C0      		rjmp .L259
 3747               	.L271:
 3748 15e6 612E      		mov r6,r17
 3749 15e8 00C0      		rjmp .L259
 3750               	.L266:
 3751               	.LM359:
 3752 15ea BB20      		tst r11
 3753 15ec 01F0      		breq .L272
 3754 15ee 8983      		std Y+1,r24
 3755               	.LVL311:
 3756 15f0 00C0      		rjmp .L259
 3757               	.L272:
 3758               	.LM360:
 3759 15f2 CC20      		tst r12
 3760 15f4 01F0      		breq .L273
 3761 15f6 412E      		mov r4,r17
 3762 15f8 00C0      		rjmp .L259
 3763               	.L273:
 3764               	.LM361:
 3765 15fa DD20      		tst r13
 3766 15fc 01F0      		breq .L274
 3767 15fe 1983      		std Y+1,r17
 3768               	.LVL312:
 3769 1600 00C0      		rjmp .L259
 3770               	.L274:
 3771               	.LM362:
 3772 1602 EE20      		tst r14
 3773 1604 01F0      		breq .L275
 3774 1606 482E      		mov r4,r24
 3775 1608 00C0      		rjmp .L259
 3776               	.L275:
 3777               	.LM363:
 3778 160a FF20      		tst r15
 3779 160c 01F4      		brne .L276
 3780 160e 782E      		mov r7,r24
 3781 1610 00C0      		rjmp .L259
 3782               	.L276:
 3783 1612 712E      		mov r7,r17
 3784               	.L259:
 3785               	.LM364:
 3786 1614 80E0      		ldi r24,lo8(0)
 3787               	.LVL313:
 3788 1616 0E94 0000 		call fill
 3789               	.LM365:
 3790 161a 622D      		mov r22,r2
 3791 161c 7727      		clr r23
 3792 161e 67FD      		sbrc r22,7
 3793 1620 7095      		com r23
 3794               	.LVL314:
 3795 1622 452D      		mov r20,r5
 3796 1624 5527      		clr r21
 3797 1626 47FD      		sbrc r20,7
 3798 1628 5095      		com r21
 3799               	.LVL315:
 3800 162a EB81      		ldd r30,Y+3
 3801 162c 8E2F      		mov r24,r30
 3802 162e 9927      		clr r25
 3803 1630 87FD      		sbrc r24,7
 3804 1632 9095      		com r25
 3805 1634 24E0      		ldi r18,lo8(4)
 3806 1636 01E0      		ldi r16,lo8(1)
 3807               	.LVL316:
 3808 1638 0E94 0000 		call filled_box_draw
 3809               	.LVL317:
 3810               	.LM366:
 3811 163c 632D      		mov r22,r3
 3812 163e 7727      		clr r23
 3813 1640 67FD      		sbrc r22,7
 3814 1642 7095      		com r23
 3815               	.LVL318:
 3816 1644 462D      		mov r20,r6
 3817 1646 5527      		clr r21
 3818 1648 47FD      		sbrc r20,7
 3819 164a 5095      		com r21
 3820               	.LVL319:
 3821 164c FA81      		ldd r31,Y+2
 3822 164e 8F2F      		mov r24,r31
 3823 1650 9927      		clr r25
 3824 1652 87FD      		sbrc r24,7
 3825 1654 9095      		com r25
 3826 1656 24E0      		ldi r18,lo8(4)
 3827 1658 0E94 0000 		call filled_box_draw
 3828               	.LVL320:
 3829               	.LM367:
 3830 165c 642D      		mov r22,r4
 3831 165e 7727      		clr r23
 3832 1660 67FD      		sbrc r22,7
 3833 1662 7095      		com r23
 3834               	.LVL321:
 3835 1664 472D      		mov r20,r7
 3836 1666 5527      		clr r21
 3837 1668 47FD      		sbrc r20,7
 3838 166a 5095      		com r21
 3839               	.LVL322:
 3840 166c 2981      		ldd r18,Y+1
 3841 166e 822F      		mov r24,r18
 3842 1670 9927      		clr r25
 3843 1672 87FD      		sbrc r24,7
 3844 1674 9095      		com r25
 3845 1676 24E0      		ldi r18,lo8(4)
 3846 1678 0E94 0000 		call filled_box_draw
 3847               	.LVL323:
 3848               	.LM368:
 3849 167c 8C81      		ldd r24,Y+4
 3850 167e 9D81      		ldd r25,Y+5
 3851 1680 0E94 0000 		call delay_ms
 3852 1684 1150      		subi r17,1
 3853 1686 00F0      		brcs .+2
 3854 1688 00C0      		rjmp .L277
 3855               	.LM369:
 3856 168a 8CE2      		ldi r24,lo8(300)
 3857 168c 91E0      		ldi r25,hi8(300)
 3858 168e 0E94 0000 		call delay_ms
 3859               	.LVL324:
 3860               	.L258:
 3861               	.LM370:
 3862 1692 8885      		ldd r24,Y+8
 3863 1694 9985      		ldd r25,Y+9
 3864 1696 0196      		adiw r24,1
 3865 1698 9987      		std Y+9,r25
 3866 169a 8887      		std Y+8,r24
 3867               	.LVL325:
 3868               	.L244:
 3869 169c EE81      		ldd r30,Y+6
 3870 169e FF81      		ldd r31,Y+7
 3871 16a0 2885      		ldd r18,Y+8
 3872 16a2 3985      		ldd r19,Y+9
 3873 16a4 E217      		cp r30,r18
 3874 16a6 F307      		cpc r31,r19
 3875 16a8 04F0      		brlt .+2
 3876 16aa 00C0      		rjmp .L278
 3877               	/* epilogue start */
 3878               	.LM371:
 3879 16ac 2996      		adiw r28,9
 3880 16ae 0FB6      		in __tmp_reg__,__SREG__
 3881 16b0 F894      		cli
 3882 16b2 DEBF      		out __SP_H__,r29
 3883 16b4 0FBE      		out __SREG__,__tmp_reg__
 3884 16b6 CDBF      		out __SP_L__,r28
 3885 16b8 CF91      		pop r28
 3886 16ba DF91      		pop r29
 3887 16bc 1F91      		pop r17
 3888               	.LVL326:
 3889 16be 0F91      		pop r16
 3890               	.LVL327:
 3891 16c0 FF90      		pop r15
 3892               	.LVL328:
 3893 16c2 EF90      		pop r14
 3894               	.LVL329:
 3895 16c4 DF90      		pop r13
 3896               	.LVL330:
 3897 16c6 CF90      		pop r12
 3898               	.LVL331:
 3899 16c8 BF90      		pop r11
 3900               	.LVL332:
 3901 16ca AF90      		pop r10
 3902               	.LVL333:
 3903 16cc 9F90      		pop r9
 3904               	.LVL334:
 3905 16ce 8F90      		pop r8
 3906               	.LVL335:
 3907 16d0 7F90      		pop r7
 3908               	.LVL336:
 3909 16d2 6F90      		pop r6
 3910               	.LVL337:
 3911 16d4 5F90      		pop r5
 3912               	.LVL338:
 3913 16d6 4F90      		pop r4
 3914               	.LVL339:
 3915 16d8 3F90      		pop r3
 3916               	.LVL340:
 3917 16da 2F90      		pop r2
 3918               	.LVL341:
 3919 16dc 0895      		ret
 3920               	.LFE29:
 3922               	.global	border_box
 3924               	border_box:
 3925               	.LFB28:
 3926               	.LM372:
 3927               	.LVL342:
 3928 16de 8F92      		push r8
 3929 16e0 9F92      		push r9
 3930 16e2 AF92      		push r10
 3931 16e4 BF92      		push r11
 3932 16e6 CF92      		push r12
 3933 16e8 DF92      		push r13
 3934 16ea EF92      		push r14
 3935 16ec FF92      		push r15
 3936 16ee 0F93      		push r16
 3937 16f0 1F93      		push r17
 3938 16f2 CF93      		push r28
 3939 16f4 DF93      		push r29
 3940               	/* prologue: function */
 3941               	/* frame size = 0 */
 3942 16f6 4C01      		movw r8,r24
 3943               	.LM373:
 3944 16f8 A62E      		mov r10,r22
 3945               	.LVL343:
 3946 16fa AA0C      		lsl r10
 3947 16fc AA0C      		lsl r10
 3948 16fe CC24      		clr r12
 3949 1700 C394      		inc r12
 3950               	.LVL344:
 3951 1702 BB24      		clr r11
 3952 1704 B394      		inc r11
 3953               	.LVL345:
 3954 1706 00C0      		rjmp .L289
 3955               	.LVL346:
 3956               	.L302:
 3957               	.LM374:
 3958 1708 DD20      		tst r13
 3959 170a 01F0      		breq .+2
 3960 170c 00C0      		rjmp .L290
 3961               	.LM375:
 3962 170e CC20      		tst r12
 3963 1710 01F0      		breq .L291
 3964               	.LM376:
 3965 1712 81E0      		ldi r24,lo8(1)
 3966 1714 E816      		cp r14,r24
 3967 1716 F104      		cpc r15,__zero_reg__
 3968 1718 01F4      		brne .L292
 3969               	.LM377:
 3970 171a CE01      		movw r24,r28
 3971 171c 60E0      		ldi r22,lo8(0)
 3972 171e 70E0      		ldi r23,hi8(0)
 3973               	.LVL347:
 3974 1720 40E0      		ldi r20,lo8(0)
 3975 1722 50E0      		ldi r21,hi8(0)
 3976 1724 0E94 0000 		call setvoxel
 3977               	.LM378:
 3978 1728 80E0      		ldi r24,lo8(0)
 3979 172a 90E0      		ldi r25,hi8(0)
 3980 172c BE01      		movw r22,r28
 3981 172e 40E0      		ldi r20,lo8(0)
 3982 1730 50E0      		ldi r21,hi8(0)
 3983 1732 0E94 0000 		call setvoxel
 3984               	.LM379:
 3985 1736 80E0      		ldi r24,lo8(0)
 3986 1738 90E0      		ldi r25,hi8(0)
 3987 173a 00C0      		rjmp .L314
 3988               	.LVL348:
 3989               	.L292:
 3990               	.LM380:
 3991 173c C801      		movw r24,r16
 3992 173e 67E0      		ldi r22,lo8(7)
 3993 1740 70E0      		ldi r23,hi8(7)
 3994               	.LVL349:
 3995 1742 47E0      		ldi r20,lo8(7)
 3996 1744 50E0      		ldi r21,hi8(7)
 3997 1746 0E94 0000 		call setvoxel
 3998               	.LM381:
 3999 174a 87E0      		ldi r24,lo8(7)
 4000 174c 90E0      		ldi r25,hi8(7)
 4001 174e B801      		movw r22,r16
 4002 1750 47E0      		ldi r20,lo8(7)
 4003 1752 50E0      		ldi r21,hi8(7)
 4004 1754 0E94 0000 		call setvoxel
 4005               	.LM382:
 4006 1758 87E0      		ldi r24,lo8(7)
 4007 175a 90E0      		ldi r25,hi8(7)
 4008 175c 67E0      		ldi r22,lo8(7)
 4009 175e 70E0      		ldi r23,hi8(7)
 4010 1760 00C0      		rjmp .L310
 4011               	.LVL350:
 4012               	.L291:
 4013               	.LM383:
 4014 1762 82E0      		ldi r24,lo8(2)
 4015 1764 E816      		cp r14,r24
 4016 1766 F104      		cpc r15,__zero_reg__
 4017 1768 01F4      		brne .L294
 4018               	.LM384:
 4019 176a CE01      		movw r24,r28
 4020 176c 67E0      		ldi r22,lo8(7)
 4021 176e 70E0      		ldi r23,hi8(7)
 4022               	.LVL351:
 4023 1770 47E0      		ldi r20,lo8(7)
 4024 1772 50E0      		ldi r21,hi8(7)
 4025 1774 0E94 0000 		call clrvoxel
 4026               	.LM385:
 4027 1778 80E0      		ldi r24,lo8(0)
 4028 177a 90E0      		ldi r25,hi8(0)
 4029 177c B801      		movw r22,r16
 4030 177e 47E0      		ldi r20,lo8(7)
 4031 1780 50E0      		ldi r21,hi8(7)
 4032 1782 0E94 0000 		call clrvoxel
 4033               	.LM386:
 4034 1786 80E0      		ldi r24,lo8(0)
 4035 1788 90E0      		ldi r25,hi8(0)
 4036 178a 00C0      		rjmp .L318
 4037               	.LVL352:
 4038               	.L294:
 4039               	.LM387:
 4040 178c C801      		movw r24,r16
 4041 178e 60E0      		ldi r22,lo8(0)
 4042 1790 70E0      		ldi r23,hi8(0)
 4043               	.LVL353:
 4044 1792 40E0      		ldi r20,lo8(0)
 4045 1794 50E0      		ldi r21,hi8(0)
 4046 1796 0E94 0000 		call clrvoxel
 4047               	.LM388:
 4048 179a 87E0      		ldi r24,lo8(7)
 4049 179c 90E0      		ldi r25,hi8(7)
 4050 179e BE01      		movw r22,r28
 4051 17a0 40E0      		ldi r20,lo8(0)
 4052 17a2 50E0      		ldi r21,hi8(0)
 4053 17a4 0E94 0000 		call clrvoxel
 4054               	.LM389:
 4055 17a8 87E0      		ldi r24,lo8(7)
 4056 17aa 90E0      		ldi r25,hi8(7)
 4057 17ac 60E0      		ldi r22,lo8(0)
 4058 17ae 70E0      		ldi r23,hi8(0)
 4059 17b0 00C0      		rjmp .L315
 4060               	.LVL354:
 4061               	.L290:
 4062               	.LM390:
 4063 17b2 81E0      		ldi r24,lo8(1)
 4064 17b4 D816      		cp r13,r24
 4065 17b6 01F0      		breq .+2
 4066 17b8 00C0      		rjmp .L295
 4067               	.LM391:
 4068 17ba CC20      		tst r12
 4069 17bc 01F4      		brne .+2
 4070 17be 00C0      		rjmp .L296
 4071               	.LM392:
 4072 17c0 81E0      		ldi r24,lo8(1)
 4073 17c2 E816      		cp r14,r24
 4074 17c4 F104      		cpc r15,__zero_reg__
 4075 17c6 01F4      		brne .L297
 4076               	.LM393:
 4077 17c8 CE01      		movw r24,r28
 4078 17ca 67E0      		ldi r22,lo8(7)
 4079 17cc 70E0      		ldi r23,hi8(7)
 4080               	.LVL355:
 4081 17ce 40E0      		ldi r20,lo8(0)
 4082 17d0 50E0      		ldi r21,hi8(0)
 4083 17d2 0E94 0000 		call setvoxel
 4084               	.LM394:
 4085 17d6 CE01      		movw r24,r28
 4086 17d8 60E0      		ldi r22,lo8(0)
 4087 17da 70E0      		ldi r23,hi8(0)
 4088 17dc 47E0      		ldi r20,lo8(7)
 4089 17de 50E0      		ldi r21,hi8(7)
 4090 17e0 0E94 0000 		call setvoxel
 4091               	.LM395:
 4092 17e4 87E0      		ldi r24,lo8(7)
 4093 17e6 90E0      		ldi r25,hi8(7)
 4094 17e8 BE01      		movw r22,r28
 4095 17ea 40E0      		ldi r20,lo8(0)
 4096 17ec 50E0      		ldi r21,hi8(0)
 4097 17ee 0E94 0000 		call setvoxel
 4098               	.LM396:
 4099 17f2 80E0      		ldi r24,lo8(0)
 4100 17f4 90E0      		ldi r25,hi8(0)
 4101 17f6 BE01      		movw r22,r28
 4102 17f8 47E0      		ldi r20,lo8(7)
 4103 17fa 50E0      		ldi r21,hi8(7)
 4104 17fc 0E94 0000 		call setvoxel
 4105               	.LM397:
 4106 1800 80E0      		ldi r24,lo8(0)
 4107 1802 90E0      		ldi r25,hi8(0)
 4108 1804 67E0      		ldi r22,lo8(7)
 4109 1806 70E0      		ldi r23,hi8(7)
 4110 1808 AE01      		movw r20,r28
 4111 180a 0E94 0000 		call setvoxel
 4112               	.LM398:
 4113 180e 87E0      		ldi r24,lo8(7)
 4114 1810 90E0      		ldi r25,hi8(7)
 4115               	.L314:
 4116 1812 60E0      		ldi r22,lo8(0)
 4117 1814 70E0      		ldi r23,hi8(0)
 4118 1816 00C0      		rjmp .L313
 4119               	.LVL356:
 4120               	.L297:
 4121               	.LM399:
 4122 1818 C801      		movw r24,r16
 4123 181a 67E0      		ldi r22,lo8(7)
 4124 181c 70E0      		ldi r23,hi8(7)
 4125               	.LVL357:
 4126 181e 40E0      		ldi r20,lo8(0)
 4127 1820 50E0      		ldi r21,hi8(0)
 4128 1822 0E94 0000 		call setvoxel
 4129               	.LM400:
 4130 1826 C801      		movw r24,r16
 4131 1828 60E0      		ldi r22,lo8(0)
 4132 182a 70E0      		ldi r23,hi8(0)
 4133 182c 47E0      		ldi r20,lo8(7)
 4134 182e 50E0      		ldi r21,hi8(7)
 4135 1830 0E94 0000 		call setvoxel
 4136               	.LM401:
 4137 1834 87E0      		ldi r24,lo8(7)
 4138 1836 90E0      		ldi r25,hi8(7)
 4139 1838 B801      		movw r22,r16
 4140 183a 40E0      		ldi r20,lo8(0)
 4141 183c 50E0      		ldi r21,hi8(0)
 4142 183e 0E94 0000 		call setvoxel
 4143               	.LM402:
 4144 1842 80E0      		ldi r24,lo8(0)
 4145 1844 90E0      		ldi r25,hi8(0)
 4146 1846 B801      		movw r22,r16
 4147 1848 47E0      		ldi r20,lo8(7)
 4148 184a 50E0      		ldi r21,hi8(7)
 4149 184c 0E94 0000 		call setvoxel
 4150               	.LM403:
 4151 1850 80E0      		ldi r24,lo8(0)
 4152 1852 90E0      		ldi r25,hi8(0)
 4153 1854 67E0      		ldi r22,lo8(7)
 4154 1856 70E0      		ldi r23,hi8(7)
 4155 1858 A801      		movw r20,r16
 4156 185a 0E94 0000 		call setvoxel
 4157               	.LM404:
 4158 185e 87E0      		ldi r24,lo8(7)
 4159 1860 90E0      		ldi r25,hi8(7)
 4160               	.L317:
 4161 1862 60E0      		ldi r22,lo8(0)
 4162 1864 70E0      		ldi r23,hi8(0)
 4163               	.L310:
 4164 1866 A801      		movw r20,r16
 4165               	.L312:
 4166 1868 0E94 0000 		call setvoxel
 4167 186c 00C0      		rjmp .L293
 4168               	.LVL358:
 4169               	.L296:
 4170               	.LM405:
 4171 186e 82E0      		ldi r24,lo8(2)
 4172 1870 E816      		cp r14,r24
 4173 1872 F104      		cpc r15,__zero_reg__
 4174 1874 01F4      		brne .L298
 4175               	.LM406:
 4176 1876 CE01      		movw r24,r28
 4177 1878 67E0      		ldi r22,lo8(7)
 4178 187a 70E0      		ldi r23,hi8(7)
 4179               	.LVL359:
 4180 187c 40E0      		ldi r20,lo8(0)
 4181 187e 50E0      		ldi r21,hi8(0)
 4182 1880 0E94 0000 		call clrvoxel
 4183               	.LM407:
 4184 1884 CE01      		movw r24,r28
 4185 1886 60E0      		ldi r22,lo8(0)
 4186 1888 70E0      		ldi r23,hi8(0)
 4187 188a 47E0      		ldi r20,lo8(7)
 4188 188c 50E0      		ldi r21,hi8(7)
 4189 188e 0E94 0000 		call clrvoxel
 4190               	.LM408:
 4191 1892 80E0      		ldi r24,lo8(0)
 4192 1894 90E0      		ldi r25,hi8(0)
 4193 1896 B801      		movw r22,r16
 4194 1898 40E0      		ldi r20,lo8(0)
 4195 189a 50E0      		ldi r21,hi8(0)
 4196 189c 0E94 0000 		call clrvoxel
 4197               	.LM409:
 4198 18a0 87E0      		ldi r24,lo8(7)
 4199 18a2 90E0      		ldi r25,hi8(7)
 4200 18a4 B801      		movw r22,r16
 4201 18a6 47E0      		ldi r20,lo8(7)
 4202 18a8 50E0      		ldi r21,hi8(7)
 4203 18aa 0E94 0000 		call clrvoxel
 4204               	.LM410:
 4205 18ae 80E0      		ldi r24,lo8(0)
 4206 18b0 90E0      		ldi r25,hi8(0)
 4207 18b2 60E0      		ldi r22,lo8(0)
 4208 18b4 70E0      		ldi r23,hi8(0)
 4209 18b6 A801      		movw r20,r16
 4210 18b8 0E94 0000 		call clrvoxel
 4211               	.LM411:
 4212 18bc 87E0      		ldi r24,lo8(7)
 4213 18be 90E0      		ldi r25,hi8(7)
 4214               	.L318:
 4215 18c0 67E0      		ldi r22,lo8(7)
 4216 18c2 70E0      		ldi r23,hi8(7)
 4217 18c4 00C0      		rjmp .L316
 4218               	.LVL360:
 4219               	.L298:
 4220               	.LM412:
 4221 18c6 C801      		movw r24,r16
 4222 18c8 67E0      		ldi r22,lo8(7)
 4223 18ca 70E0      		ldi r23,hi8(7)
 4224               	.LVL361:
 4225 18cc 40E0      		ldi r20,lo8(0)
 4226 18ce 50E0      		ldi r21,hi8(0)
 4227 18d0 0E94 0000 		call clrvoxel
 4228               	.LM413:
 4229 18d4 C801      		movw r24,r16
 4230 18d6 60E0      		ldi r22,lo8(0)
 4231 18d8 70E0      		ldi r23,hi8(0)
 4232 18da 47E0      		ldi r20,lo8(7)
 4233 18dc 50E0      		ldi r21,hi8(7)
 4234 18de 0E94 0000 		call clrvoxel
 4235               	.LM414:
 4236 18e2 80E0      		ldi r24,lo8(0)
 4237 18e4 90E0      		ldi r25,hi8(0)
 4238 18e6 BE01      		movw r22,r28
 4239 18e8 40E0      		ldi r20,lo8(0)
 4240 18ea 50E0      		ldi r21,hi8(0)
 4241 18ec 0E94 0000 		call clrvoxel
 4242               	.LM415:
 4243 18f0 87E0      		ldi r24,lo8(7)
 4244 18f2 90E0      		ldi r25,hi8(7)
 4245 18f4 BE01      		movw r22,r28
 4246 18f6 47E0      		ldi r20,lo8(7)
 4247 18f8 50E0      		ldi r21,hi8(7)
 4248 18fa 0E94 0000 		call clrvoxel
 4249               	.LM416:
 4250 18fe 80E0      		ldi r24,lo8(0)
 4251 1900 90E0      		ldi r25,hi8(0)
 4252 1902 60E0      		ldi r22,lo8(0)
 4253 1904 70E0      		ldi r23,hi8(0)
 4254 1906 AE01      		movw r20,r28
 4255 1908 0E94 0000 		call clrvoxel
 4256               	.LM417:
 4257 190c 87E0      		ldi r24,lo8(7)
 4258 190e 90E0      		ldi r25,hi8(7)
 4259 1910 00C0      		rjmp .L319
 4260               	.LVL362:
 4261               	.L295:
 4262               	.LM418:
 4263 1912 CC20      		tst r12
 4264 1914 01F0      		breq .L299
 4265               	.LM419:
 4266 1916 81E0      		ldi r24,lo8(1)
 4267 1918 E816      		cp r14,r24
 4268 191a F104      		cpc r15,__zero_reg__
 4269 191c 01F4      		brne .L300
 4270               	.LM420:
 4271 191e CE01      		movw r24,r28
 4272 1920 67E0      		ldi r22,lo8(7)
 4273 1922 70E0      		ldi r23,hi8(7)
 4274               	.LVL363:
 4275 1924 47E0      		ldi r20,lo8(7)
 4276 1926 50E0      		ldi r21,hi8(7)
 4277 1928 0E94 0000 		call setvoxel
 4278               	.LM421:
 4279 192c 87E0      		ldi r24,lo8(7)
 4280 192e 90E0      		ldi r25,hi8(7)
 4281 1930 BE01      		movw r22,r28
 4282 1932 47E0      		ldi r20,lo8(7)
 4283 1934 50E0      		ldi r21,hi8(7)
 4284 1936 0E94 0000 		call setvoxel
 4285               	.LM422:
 4286 193a 87E0      		ldi r24,lo8(7)
 4287 193c 90E0      		ldi r25,hi8(7)
 4288 193e 67E0      		ldi r22,lo8(7)
 4289 1940 70E0      		ldi r23,hi8(7)
 4290               	.L313:
 4291 1942 AE01      		movw r20,r28
 4292 1944 00C0      		rjmp .L312
 4293               	.LVL364:
 4294               	.L300:
 4295               	.LM423:
 4296 1946 C801      		movw r24,r16
 4297 1948 60E0      		ldi r22,lo8(0)
 4298 194a 70E0      		ldi r23,hi8(0)
 4299               	.LVL365:
 4300 194c 40E0      		ldi r20,lo8(0)
 4301 194e 50E0      		ldi r21,hi8(0)
 4302 1950 0E94 0000 		call setvoxel
 4303               	.LM424:
 4304 1954 80E0      		ldi r24,lo8(0)
 4305 1956 90E0      		ldi r25,hi8(0)
 4306 1958 B801      		movw r22,r16
 4307 195a 40E0      		ldi r20,lo8(0)
 4308 195c 50E0      		ldi r21,hi8(0)
 4309 195e 0E94 0000 		call setvoxel
 4310               	.LM425:
 4311 1962 80E0      		ldi r24,lo8(0)
 4312 1964 90E0      		ldi r25,hi8(0)
 4313 1966 00C0      		rjmp .L317
 4314               	.LVL366:
 4315               	.L299:
 4316               	.LM426:
 4317 1968 82E0      		ldi r24,lo8(2)
 4318 196a E816      		cp r14,r24
 4319 196c F104      		cpc r15,__zero_reg__
 4320 196e 01F4      		brne .L301
 4321               	.LM427:
 4322 1970 CE01      		movw r24,r28
 4323 1972 60E0      		ldi r22,lo8(0)
 4324 1974 70E0      		ldi r23,hi8(0)
 4325               	.LVL367:
 4326 1976 40E0      		ldi r20,lo8(0)
 4327 1978 50E0      		ldi r21,hi8(0)
 4328 197a 0E94 0000 		call clrvoxel
 4329               	.LM428:
 4330 197e 87E0      		ldi r24,lo8(7)
 4331 1980 90E0      		ldi r25,hi8(7)
 4332 1982 B801      		movw r22,r16
 4333 1984 40E0      		ldi r20,lo8(0)
 4334 1986 50E0      		ldi r21,hi8(0)
 4335 1988 0E94 0000 		call clrvoxel
 4336               	.LM429:
 4337 198c 87E0      		ldi r24,lo8(7)
 4338 198e 90E0      		ldi r25,hi8(7)
 4339 1990 60E0      		ldi r22,lo8(0)
 4340 1992 70E0      		ldi r23,hi8(0)
 4341               	.L316:
 4342 1994 A801      		movw r20,r16
 4343 1996 00C0      		rjmp .L311
 4344               	.LVL368:
 4345               	.L301:
 4346               	.LM430:
 4347 1998 C801      		movw r24,r16
 4348 199a 67E0      		ldi r22,lo8(7)
 4349 199c 70E0      		ldi r23,hi8(7)
 4350               	.LVL369:
 4351 199e 47E0      		ldi r20,lo8(7)
 4352 19a0 50E0      		ldi r21,hi8(7)
 4353 19a2 0E94 0000 		call clrvoxel
 4354               	.LM431:
 4355 19a6 80E0      		ldi r24,lo8(0)
 4356 19a8 90E0      		ldi r25,hi8(0)
 4357 19aa BE01      		movw r22,r28
 4358 19ac 47E0      		ldi r20,lo8(7)
 4359 19ae 50E0      		ldi r21,hi8(7)
 4360 19b0 0E94 0000 		call clrvoxel
 4361               	.LM432:
 4362 19b4 80E0      		ldi r24,lo8(0)
 4363 19b6 90E0      		ldi r25,hi8(0)
 4364               	.L319:
 4365 19b8 67E0      		ldi r22,lo8(7)
 4366 19ba 70E0      		ldi r23,hi8(7)
 4367               	.L315:
 4368 19bc AE01      		movw r20,r28
 4369               	.L311:
 4370 19be 0E94 0000 		call clrvoxel
 4371               	.L293:
 4372               	.LM433:
 4373 19c2 C401      		movw r24,r8
 4374 19c4 0E94 0000 		call delay_ms
 4375 19c8 2196      		adiw r28,1
 4376 19ca 0150      		subi r16,lo8(-(-1))
 4377 19cc 1040      		sbci r17,hi8(-(-1))
 4378               	.LM434:
 4379 19ce C830      		cpi r28,8
 4380 19d0 D105      		cpc r29,__zero_reg__
 4381 19d2 01F0      		breq .+2
 4382 19d4 00C0      		rjmp .L302
 4383               	.LM435:
 4384 19d6 82E0      		ldi r24,lo8(2)
 4385 19d8 D816      		cp r13,r24
 4386 19da 01F4      		brne .L303
 4387               	.LM436:
 4388 19dc 80E0      		ldi r24,lo8(0)
 4389 19de CC20      		tst r12
 4390 19e0 01F4      		brne .L304
 4391 19e2 81E0      		ldi r24,lo8(1)
 4392               	.L304:
 4393 19e4 C82E      		mov r12,r24
 4394               	.L303:
 4395               	.LM437:
 4396 19e6 D394      		inc r13
 4397 19e8 83E0      		ldi r24,lo8(3)
 4398 19ea D816      		cp r13,r24
 4399 19ec 01F0      		breq .L305
 4400               	.LVL370:
 4401               	.L307:
 4402 19ee C0E0      		ldi r28,lo8(0)
 4403 19f0 D0E0      		ldi r29,hi8(0)
 4404 19f2 07E0      		ldi r16,lo8(7)
 4405 19f4 10E0      		ldi r17,hi8(7)
 4406 19f6 00C0      		rjmp .L302
 4407               	.LVL371:
 4408               	.L305:
 4409               	.LM438:
 4410 19f8 B394      		inc r11
 4411               	.LM439:
 4412 19fa AA94      		dec r10
 4413               	.LVL372:
 4414               	.L289:
 4415               	.LM440:
 4416 19fc AA20      		tst r10
 4417 19fe 01F0      		breq .L308
 4418 1a00 DD24      		clr r13
 4419 1a02 EB2C      		mov r14,r11
 4420 1a04 FF24      		clr r15
 4421               	.LM441:
 4422 1a06 83E0      		ldi r24,lo8(3)
 4423 1a08 E822      		and r14,r24
 4424 1a0a FF24      		clr r15
 4425 1a0c 00C0      		rjmp .L307
 4426               	.LVL373:
 4427               	.L308:
 4428               	/* epilogue start */
 4429               	.LM442:
 4430 1a0e DF91      		pop r29
 4431 1a10 CF91      		pop r28
 4432 1a12 1F91      		pop r17
 4433 1a14 0F91      		pop r16
 4434 1a16 FF90      		pop r15
 4435 1a18 EF90      		pop r14
 4436 1a1a DF90      		pop r13
 4437               	.LVL374:
 4438 1a1c CF90      		pop r12
 4439               	.LVL375:
 4440 1a1e BF90      		pop r11
 4441               	.LVL376:
 4442 1a20 AF90      		pop r10
 4443               	.LVL377:
 4444 1a22 9F90      		pop r9
 4445 1a24 8F90      		pop r8
 4446               	.LVL378:
 4447 1a26 0895      		ret
 4448               	.LFE28:
 4450               	.global	sendvoxel_z
 4452               	sendvoxel_z:
 4453               	.LFB6:
 4454               	.LM443:
 4455               	.LVL379:
 4456 1a28 7F92      		push r7
 4457 1a2a 8F92      		push r8
 4458 1a2c 9F92      		push r9
 4459 1a2e AF92      		push r10
 4460 1a30 BF92      		push r11
 4461 1a32 CF92      		push r12
 4462 1a34 DF92      		push r13
 4463 1a36 EF92      		push r14
 4464 1a38 FF92      		push r15
 4465 1a3a 0F93      		push r16
 4466 1a3c 1F93      		push r17
 4467 1a3e CF93      		push r28
 4468 1a40 DF93      		push r29
 4469               	/* prologue: function */
 4470               	/* frame size = 0 */
 4471 1a42 E82E      		mov r14,r24
 4472 1a44 F62E      		mov r15,r22
 4473 1a46 742E      		mov r7,r20
 4474 1a48 6901      		movw r12,r18
 4475               	.LM444:
 4476 1a4a C0E0      		ldi r28,lo8(0)
 4477 1a4c D0E0      		ldi r29,hi8(0)
 4478               	.LVL380:
 4479 1a4e 77E0      		ldi r23,lo8(7)
 4480 1a50 872E      		mov r8,r23
 4481 1a52 912C      		mov r9,__zero_reg__
 4482               	.LM445:
 4483 1a54 68E0      		ldi r22,lo8(8)
 4484 1a56 A62E      		mov r10,r22
 4485 1a58 B12C      		mov r11,__zero_reg__
 4486               	.LVL381:
 4487               	.L323:
 4488               	.LM446:
 4489 1a5a 87E0      		ldi r24,lo8(7)
 4490 1a5c 7816      		cp r7,r24
 4491 1a5e 01F4      		brne .L321
 4492               	.LM447:
 4493 1a60 8401      		movw r16,r8
 4494 1a62 0C1B      		sub r16,r28
 4495 1a64 1D0B      		sbc r17,r29
 4496               	.LM448:
 4497 1a66 A501      		movw r20,r10
 4498 1a68 4C1B      		sub r20,r28
 4499 1a6a 5D0B      		sbc r21,r29
 4500 1a6c 8E2D      		mov r24,r14
 4501 1a6e 90E0      		ldi r25,lo8(0)
 4502 1a70 6F2D      		mov r22,r15
 4503 1a72 70E0      		ldi r23,lo8(0)
 4504 1a74 0E94 0000 		call clrvoxel
 4505 1a78 00C0      		rjmp .L322
 4506               	.LVL382:
 4507               	.L321:
 4508               	.LM449:
 4509 1a7a AE01      		movw r20,r28
 4510 1a7c 4150      		subi r20,lo8(-(-1))
 4511 1a7e 5040      		sbci r21,hi8(-(-1))
 4512 1a80 8E2D      		mov r24,r14
 4513 1a82 90E0      		ldi r25,lo8(0)
 4514 1a84 6F2D      		mov r22,r15
 4515 1a86 70E0      		ldi r23,lo8(0)
 4516 1a88 0E94 0000 		call clrvoxel
 4517 1a8c 8E01      		movw r16,r28
 4518               	.L322:
 4519               	.LM450:
 4520 1a8e 8E2D      		mov r24,r14
 4521 1a90 90E0      		ldi r25,lo8(0)
 4522 1a92 6F2D      		mov r22,r15
 4523 1a94 70E0      		ldi r23,lo8(0)
 4524 1a96 A801      		movw r20,r16
 4525 1a98 0E94 0000 		call setvoxel
 4526               	.LM451:
 4527 1a9c C601      		movw r24,r12
 4528 1a9e 0E94 0000 		call delay_ms
 4529               	.LM452:
 4530 1aa2 2196      		adiw r28,1
 4531 1aa4 C830      		cpi r28,8
 4532 1aa6 D105      		cpc r29,__zero_reg__
 4533 1aa8 01F4      		brne .L323
 4534               	/* epilogue start */
 4535               	.LM453:
 4536 1aaa DF91      		pop r29
 4537 1aac CF91      		pop r28
 4538               	.LVL383:
 4539 1aae 1F91      		pop r17
 4540 1ab0 0F91      		pop r16
 4541               	.LVL384:
 4542 1ab2 FF90      		pop r15
 4543               	.LVL385:
 4544 1ab4 EF90      		pop r14
 4545               	.LVL386:
 4546 1ab6 DF90      		pop r13
 4547 1ab8 CF90      		pop r12
 4548               	.LVL387:
 4549 1aba BF90      		pop r11
 4550 1abc AF90      		pop r10
 4551 1abe 9F90      		pop r9
 4552 1ac0 8F90      		pop r8
 4553 1ac2 7F90      		pop r7
 4554               	.LVL388:
 4555 1ac4 0895      		ret
 4556               	.LFE6:
 4558               	.global	sendvoxels_rand_z
 4560               	sendvoxels_rand_z:
 4561               	.LFB5:
 4562               	.LM454:
 4563               	.LVL389:
 4564 1ac6 6F92      		push r6
 4565 1ac8 7F92      		push r7
 4566 1aca 8F92      		push r8
 4567 1acc 9F92      		push r9
 4568 1ace AF92      		push r10
 4569 1ad0 BF92      		push r11
 4570 1ad2 DF92      		push r13
 4571 1ad4 EF92      		push r14
 4572 1ad6 FF92      		push r15
 4573 1ad8 0F93      		push r16
 4574 1ada 1F93      		push r17
 4575 1adc CF93      		push r28
 4576 1ade DF93      		push r29
 4577               	/* prologue: function */
 4578               	/* frame size = 0 */
 4579 1ae0 3C01      		movw r6,r24
 4580 1ae2 5B01      		movw r10,r22
 4581 1ae4 4A01      		movw r8,r20
 4582               	.LM455:
 4583 1ae6 80E0      		ldi r24,lo8(0)
 4584               	.LVL390:
 4585 1ae8 0E94 0000 		call fill
 4586               	.LVL391:
 4587 1aec 00E0      		ldi r16,lo8(0)
 4588 1aee 10E0      		ldi r17,hi8(0)
 4589 1af0 00C0      		rjmp .L327
 4590               	.L328:
 4591               	.LM456:
 4592 1af2 0E94 0000 		call rand
 4593 1af6 62E0      		ldi r22,lo8(2)
 4594 1af8 70E0      		ldi r23,hi8(2)
 4595 1afa 0E94 0000 		call __divmodhi4
 4596 1afe AC01      		movw r20,r24
 4597 1b00 E3E0      		ldi r30,3
 4598 1b02 440F      	1:	lsl r20
 4599 1b04 551F      		rol r21
 4600 1b06 EA95      		dec r30
 4601 1b08 01F4      		brne 1b
 4602 1b0a 481B      		sub r20,r24
 4603 1b0c 590B      		sbc r21,r25
 4604 1b0e C801      		movw r24,r16
 4605 1b10 BE01      		movw r22,r28
 4606 1b12 0E94 0000 		call setvoxel
 4607 1b16 2196      		adiw r28,1
 4608               	.LM457:
 4609 1b18 C830      		cpi r28,8
 4610 1b1a D105      		cpc r29,__zero_reg__
 4611 1b1c 01F4      		brne .L328
 4612 1b1e 0F5F      		subi r16,lo8(-(1))
 4613 1b20 1F4F      		sbci r17,hi8(-(1))
 4614               	.LM458:
 4615 1b22 0830      		cpi r16,8
 4616 1b24 1105      		cpc r17,__zero_reg__
 4617 1b26 01F4      		brne .L327
 4618 1b28 FF24      		clr r15
 4619               	.LVL392:
 4620 1b2a DD24      		clr r13
 4621               	.LVL393:
 4622 1b2c EE24      		clr r14
 4623               	.LVL394:
 4624 1b2e 00C0      		rjmp .L329
 4625               	.LVL395:
 4626               	.L327:
 4627 1b30 C0E0      		ldi r28,lo8(0)
 4628 1b32 D0E0      		ldi r29,hi8(0)
 4629 1b34 00C0      		rjmp .L328
 4630               	.LVL396:
 4631               	.L333:
 4632               	.LM459:
 4633 1b36 0E94 0000 		call rand
 4634               	.LVL397:
 4635 1b3a EC01      		movw r28,r24
 4636               	.LM460:
 4637 1b3c 0E94 0000 		call rand
 4638 1b40 68E0      		ldi r22,lo8(8)
 4639 1b42 70E0      		ldi r23,hi8(8)
 4640 1b44 0E94 0000 		call __divmodhi4
 4641 1b48 082F      		mov r16,r24
 4642               	.LM461:
 4643 1b4a 8E15      		cp r24,r14
 4644 1b4c 01F0      		breq .L330
 4645               	.LVL398:
 4646               	.LM462:
 4647 1b4e CE01      		movw r24,r28
 4648               	.LVL399:
 4649 1b50 68E0      		ldi r22,lo8(8)
 4650 1b52 70E0      		ldi r23,hi8(8)
 4651 1b54 0E94 0000 		call __divmodhi4
 4652 1b58 182F      		mov r17,r24
 4653               	.LM463:
 4654 1b5a 8D15      		cp r24,r13
 4655 1b5c 01F0      		breq .L330
 4656               	.LVL400:
 4657               	.LM464:
 4658 1b5e 90E0      		ldi r25,lo8(0)
 4659 1b60 602F      		mov r22,r16
 4660 1b62 70E0      		ldi r23,lo8(0)
 4661 1b64 40E0      		ldi r20,lo8(0)
 4662 1b66 50E0      		ldi r21,hi8(0)
 4663 1b68 0E94 0000 		call getvoxel
 4664               	.LVL401:
 4665 1b6c 8823      		tst r24
 4666 1b6e 01F0      		breq .L331
 4667               	.LM465:
 4668 1b70 812F      		mov r24,r17
 4669 1b72 602F      		mov r22,r16
 4670 1b74 40E0      		ldi r20,lo8(0)
 4671 1b76 00C0      		rjmp .L337
 4672               	.L331:
 4673               	.LM466:
 4674 1b78 812F      		mov r24,r17
 4675 1b7a 602F      		mov r22,r16
 4676 1b7c 47E0      		ldi r20,lo8(7)
 4677               	.L337:
 4678 1b7e 9501      		movw r18,r10
 4679 1b80 0E94 0000 		call sendvoxel_z
 4680               	.LM467:
 4681 1b84 C401      		movw r24,r8
 4682 1b86 0E94 0000 		call delay_ms
 4683 1b8a D12E      		mov r13,r17
 4684 1b8c E02E      		mov r14,r16
 4685               	.LVL402:
 4686               	.L330:
 4687               	.LM468:
 4688 1b8e F394      		inc r15
 4689               	.L329:
 4690 1b90 8F2D      		mov r24,r15
 4691 1b92 90E0      		ldi r25,lo8(0)
 4692               	.LVL403:
 4693 1b94 8615      		cp r24,r6
 4694 1b96 9705      		cpc r25,r7
 4695 1b98 04F0      		brlt .L333
 4696               	.LVL404:
 4697               	/* epilogue start */
 4698               	.LM469:
 4699 1b9a DF91      		pop r29
 4700 1b9c CF91      		pop r28
 4701 1b9e 1F91      		pop r17
 4702               	.LVL405:
 4703 1ba0 0F91      		pop r16
 4704               	.LVL406:
 4705 1ba2 FF90      		pop r15
 4706 1ba4 EF90      		pop r14
 4707               	.LVL407:
 4708 1ba6 DF90      		pop r13
 4709               	.LVL408:
 4710 1ba8 BF90      		pop r11
 4711 1baa AF90      		pop r10
 4712               	.LVL409:
 4713 1bac 9F90      		pop r9
 4714 1bae 8F90      		pop r8
 4715               	.LVL410:
 4716 1bb0 7F90      		pop r7
 4717 1bb2 6F90      		pop r6
 4718               	.LVL411:
 4719 1bb4 0895      		ret
 4720               	.LFE5:
 4722               	.global	effect_rain
 4724               	effect_rain:
 4725               	.LFB4:
 4726               	.LM470:
 4727               	.LVL412:
 4728 1bb6 8F92      		push r8
 4729 1bb8 9F92      		push r9
 4730 1bba AF92      		push r10
 4731 1bbc BF92      		push r11
 4732 1bbe CF92      		push r12
 4733 1bc0 DF92      		push r13
 4734 1bc2 EF92      		push r14
 4735 1bc4 FF92      		push r15
 4736 1bc6 0F93      		push r16
 4737 1bc8 1F93      		push r17
 4738 1bca CF93      		push r28
 4739 1bcc DF93      		push r29
 4740               	/* prologue: function */
 4741               	/* frame size = 0 */
 4742 1bce 4C01      		movw r8,r24
 4743 1bd0 5B01      		movw r10,r22
 4744               	.LM471:
 4745 1bd2 CC24      		clr r12
 4746 1bd4 DD24      		clr r13
 4747               	.LVL413:
 4748 1bd6 00C0      		rjmp .L339
 4749               	.LVL414:
 4750               	.L342:
 4751               	.LM472:
 4752 1bd8 0E94 0000 		call rand
 4753 1bdc 64E0      		ldi r22,lo8(4)
 4754 1bde 70E0      		ldi r23,hi8(4)
 4755 1be0 0E94 0000 		call __divmodhi4
 4756 1be4 EC01      		movw r28,r24
 4757               	.LVL415:
 4758 1be6 EE24      		clr r14
 4759 1be8 FF24      		clr r15
 4760 1bea 00C0      		rjmp .L340
 4761               	.LVL416:
 4762               	.L341:
 4763               	.LM473:
 4764 1bec 0E94 0000 		call rand
 4765 1bf0 8C01      		movw r16,r24
 4766               	.LM474:
 4767 1bf2 0E94 0000 		call rand
 4768 1bf6 9C01      		movw r18,r24
 4769               	.LM475:
 4770 1bf8 C801      		movw r24,r16
 4771 1bfa 68E0      		ldi r22,lo8(8)
 4772 1bfc 70E0      		ldi r23,hi8(8)
 4773 1bfe 0E94 0000 		call __divmodhi4
 4774 1c02 FC01      		movw r30,r24
 4775 1c04 C901      		movw r24,r18
 4776 1c06 68E0      		ldi r22,lo8(8)
 4777 1c08 70E0      		ldi r23,hi8(8)
 4778 1c0a 0E94 0000 		call __divmodhi4
 4779 1c0e BC01      		movw r22,r24
 4780 1c10 CF01      		movw r24,r30
 4781 1c12 47E0      		ldi r20,lo8(7)
 4782 1c14 50E0      		ldi r21,hi8(7)
 4783 1c16 0E94 0000 		call setvoxel
 4784               	.LM476:
 4785 1c1a 0894      		sec
 4786 1c1c E11C      		adc r14,__zero_reg__
 4787 1c1e F11C      		adc r15,__zero_reg__
 4788               	.L340:
 4789 1c20 EC16      		cp r14,r28
 4790 1c22 FD06      		cpc r15,r29
 4791 1c24 04F0      		brlt .L341
 4792               	.LM477:
 4793 1c26 C501      		movw r24,r10
 4794 1c28 0E94 0000 		call delay_ms
 4795               	.LM478:
 4796 1c2c 8AE7      		ldi r24,lo8(122)
 4797 1c2e 6FEF      		ldi r22,lo8(-1)
 4798 1c30 7FEF      		ldi r23,hi8(-1)
 4799 1c32 0E94 0000 		call shift
 4800               	.LM479:
 4801 1c36 0894      		sec
 4802 1c38 C11C      		adc r12,__zero_reg__
 4803 1c3a D11C      		adc r13,__zero_reg__
 4804               	.LVL417:
 4805               	.L339:
 4806 1c3c C814      		cp r12,r8
 4807 1c3e D904      		cpc r13,r9
 4808 1c40 04F0      		brlt .L342
 4809               	/* epilogue start */
 4810               	.LM480:
 4811 1c42 DF91      		pop r29
 4812 1c44 CF91      		pop r28
 4813               	.LVL418:
 4814 1c46 1F91      		pop r17
 4815 1c48 0F91      		pop r16
 4816 1c4a FF90      		pop r15
 4817 1c4c EF90      		pop r14
 4818               	.LVL419:
 4819 1c4e DF90      		pop r13
 4820 1c50 CF90      		pop r12
 4821               	.LVL420:
 4822 1c52 BF90      		pop r11
 4823 1c54 AF90      		pop r10
 4824               	.LVL421:
 4825 1c56 9F90      		pop r9
 4826 1c58 8F90      		pop r8
 4827               	.LVL422:
 4828 1c5a 0895      		ret
 4829               	.LFE4:
 4831               	.global	bomb
 4833               	bomb:
 4834               	.LFB35:
 4835               	.LM481:
 4836               	.LVL423:
 4837 1c5c 9F92      		push r9
 4838 1c5e AF92      		push r10
 4839 1c60 BF92      		push r11
 4840 1c62 CF92      		push r12
 4841 1c64 DF92      		push r13
 4842 1c66 EF92      		push r14
 4843 1c68 FF92      		push r15
 4844 1c6a 0F93      		push r16
 4845 1c6c 1F93      		push r17
 4846 1c6e CF93      		push r28
 4847 1c70 DF93      		push r29
 4848               	/* prologue: function */
 4849               	/* frame size = 0 */
 4850 1c72 982E      		mov r9,r24
 4851 1c74 C92E      		mov r12,r25
 4852               	.LVL424:
 4853 1c76 5B01      		movw r10,r22
 4854               	.LM482:
 4855 1c78 EE24      		clr r14
 4856 1c7a FF24      		clr r15
 4857               	.LVL425:
 4858 1c7c 00C0      		rjmp .L345
 4859               	.LVL426:
 4860               	.L348:
 4861               	.LM483:
 4862 1c7e 0E94 0000 		call rand
 4863 1c82 8C01      		movw r16,r24
 4864               	.LVL427:
 4865               	.LM484:
 4866 1c84 0E94 0000 		call rand
 4867 1c88 9C01      		movw r18,r24
 4868               	.LM485:
 4869 1c8a C801      		movw r24,r16
 4870 1c8c 68E0      		ldi r22,lo8(8)
 4871 1c8e 70E0      		ldi r23,hi8(8)
 4872 1c90 0E94 0000 		call __divmodhi4
 4873 1c94 D82E      		mov r13,r24
 4874 1c96 C901      		movw r24,r18
 4875 1c98 68E0      		ldi r22,lo8(8)
 4876 1c9a 70E0      		ldi r23,hi8(8)
 4877 1c9c 0E94 0000 		call __divmodhi4
 4878 1ca0 182F      		mov r17,r24
 4879 1ca2 8D2D      		mov r24,r13
 4880 1ca4 90E0      		ldi r25,lo8(0)
 4881 1ca6 612F      		mov r22,r17
 4882 1ca8 70E0      		ldi r23,lo8(0)
 4883 1caa 47E0      		ldi r20,lo8(7)
 4884 1cac 50E0      		ldi r21,hi8(7)
 4885 1cae 0E94 0000 		call setvoxel
 4886 1cb2 00E0      		ldi r16,lo8(0)
 4887               	.LVL428:
 4888               	.L346:
 4889               	.LM486:
 4890 1cb4 892D      		mov r24,r9
 4891 1cb6 9C2D      		mov r25,r12
 4892 1cb8 0E94 0000 		call delay_ms
 4893               	.LM487:
 4894 1cbc 8AE7      		ldi r24,lo8(122)
 4895 1cbe 6FEF      		ldi r22,lo8(-1)
 4896 1cc0 7FEF      		ldi r23,hi8(-1)
 4897 1cc2 0E94 0000 		call shift
 4898               	.LM488:
 4899 1cc6 0F5F      		subi r16,lo8(-(1))
 4900 1cc8 0830      		cpi r16,lo8(8)
 4901 1cca 01F4      		brne .L346
 4902 1ccc C1E0      		ldi r28,lo8(1)
 4903 1cce D0E0      		ldi r29,hi8(1)
 4904               	.L347:
 4905               	.LM489:
 4906 1cd0 8D2D      		mov r24,r13
 4907 1cd2 90E0      		ldi r25,lo8(0)
 4908 1cd4 612F      		mov r22,r17
 4909 1cd6 70E0      		ldi r23,lo8(0)
 4910 1cd8 40E0      		ldi r20,lo8(0)
 4911 1cda 50E0      		ldi r21,hi8(0)
 4912 1cdc 9E01      		movw r18,r28
 4913 1cde 0E94 0000 		call drawCircle
 4914               	.LM490:
 4915 1ce2 892D      		mov r24,r9
 4916 1ce4 9C2D      		mov r25,r12
 4917 1ce6 0E94 0000 		call delay_ms
 4918               	.LM491:
 4919 1cea 80E0      		ldi r24,lo8(0)
 4920 1cec 0E94 0000 		call fill
 4921 1cf0 2196      		adiw r28,1
 4922               	.LM492:
 4923 1cf2 C930      		cpi r28,9
 4924 1cf4 D105      		cpc r29,__zero_reg__
 4925 1cf6 01F4      		brne .L347
 4926               	.LM493:
 4927 1cf8 80E2      		ldi r24,lo8(800)
 4928 1cfa 93E0      		ldi r25,hi8(800)
 4929 1cfc 0E94 0000 		call delay_ms
 4930               	.LM494:
 4931 1d00 0894      		sec
 4932 1d02 E11C      		adc r14,__zero_reg__
 4933 1d04 F11C      		adc r15,__zero_reg__
 4934               	.LVL429:
 4935               	.L345:
 4936 1d06 EA14      		cp r14,r10
 4937 1d08 FB04      		cpc r15,r11
 4938 1d0a 04F4      		brge .+2
 4939 1d0c 00C0      		rjmp .L348
 4940               	/* epilogue start */
 4941               	.LM495:
 4942 1d0e DF91      		pop r29
 4943 1d10 CF91      		pop r28
 4944 1d12 1F91      		pop r17
 4945 1d14 0F91      		pop r16
 4946               	.LVL430:
 4947 1d16 FF90      		pop r15
 4948 1d18 EF90      		pop r14
 4949               	.LVL431:
 4950 1d1a DF90      		pop r13
 4951 1d1c CF90      		pop r12
 4952               	.LVL432:
 4953 1d1e BF90      		pop r11
 4954 1d20 AF90      		pop r10
 4955               	.LVL433:
 4956 1d22 9F90      		pop r9
 4957               	.LVL434:
 4958 1d24 0895      		ret
 4959               	.LFE35:
 4961               	.global	crazy_straw
 4963               	crazy_straw:
 4964               	.LFB34:
 4965               	.LM496:
 4966               	.LVL435:
 4967 1d26 2F92      		push r2
 4968 1d28 3F92      		push r3
 4969 1d2a 4F92      		push r4
 4970 1d2c 5F92      		push r5
 4971 1d2e 6F92      		push r6
 4972 1d30 7F92      		push r7
 4973 1d32 8F92      		push r8
 4974 1d34 9F92      		push r9
 4975 1d36 AF92      		push r10
 4976 1d38 BF92      		push r11
 4977 1d3a CF92      		push r12
 4978 1d3c DF92      		push r13
 4979 1d3e EF92      		push r14
 4980 1d40 FF92      		push r15
 4981 1d42 0F93      		push r16
 4982 1d44 1F93      		push r17
 4983 1d46 DF93      		push r29
 4984 1d48 CF93      		push r28
 4985 1d4a CDB7      		in r28,__SP_L__
 4986 1d4c DEB7      		in r29,__SP_H__
 4987 1d4e 2997      		sbiw r28,9
 4988 1d50 0FB6      		in __tmp_reg__,__SREG__
 4989 1d52 F894      		cli
 4990 1d54 DEBF      		out __SP_H__,r29
 4991 1d56 0FBE      		out __SREG__,__tmp_reg__
 4992 1d58 CDBF      		out __SP_L__,r28
 4993               	/* prologue: function */
 4994               	/* frame size = 9 */
 4995 1d5a 9D83      		std Y+5,r25
 4996 1d5c 8C83      		std Y+4,r24
 4997 1d5e 7F83      		std Y+7,r23
 4998 1d60 6E83      		std Y+6,r22
 4999               	.LM497:
 5000 1d62 0E94 0000 		call rand
 5001               	.LVL436:
 5002 1d66 80FD      		sbrc r24,0
 5003 1d68 00C0      		rjmp .L353
 5004 1d6a 27E0      		ldi r18,lo8(7)
 5005 1d6c 2B83      		std Y+3,r18
 5006               	.LVL437:
 5007 1d6e 00C0      		rjmp .L354
 5008               	.LVL438:
 5009               	.L353:
 5010 1d70 1B82      		std Y+3,__zero_reg__
 5011               	.LVL439:
 5012               	.L354:
 5013               	.LM498:
 5014 1d72 0E94 0000 		call rand
 5015 1d76 80FD      		sbrc r24,0
 5016 1d78 00C0      		rjmp .L355
 5017 1d7a 37E0      		ldi r19,lo8(7)
 5018 1d7c 3A83      		std Y+2,r19
 5019               	.LVL440:
 5020 1d7e 00C0      		rjmp .L356
 5021               	.LVL441:
 5022               	.L355:
 5023 1d80 1A82      		std Y+2,__zero_reg__
 5024               	.LVL442:
 5025               	.L356:
 5026               	.LM499:
 5027 1d82 0E94 0000 		call rand
 5028 1d86 80FD      		sbrc r24,0
 5029 1d88 00C0      		rjmp .L357
 5030 1d8a 87E0      		ldi r24,lo8(7)
 5031 1d8c 8983      		std Y+1,r24
 5032               	.LVL443:
 5033 1d8e 00C0      		rjmp .L358
 5034               	.LVL444:
 5035               	.L357:
 5036 1d90 1982      		std Y+1,__zero_reg__
 5037               	.LVL445:
 5038               	.L358:
 5039               	.LM500:
 5040 1d92 9B81      		ldd r25,Y+3
 5041 1d94 9923      		tst r25
 5042 1d96 01F4      		brne .L359
 5043 1d98 07E0      		ldi r16,lo8(7)
 5044 1d9a 902E      		mov r9,r16
 5045               	.LVL446:
 5046 1d9c 00C0      		rjmp .L360
 5047               	.LVL447:
 5048               	.L359:
 5049 1d9e 9924      		clr r9
 5050               	.LVL448:
 5051               	.L360:
 5052 1da0 8A80      		ldd r8,Y+2
 5053               	.LVL449:
 5054 1da2 7980      		ldd r7,Y+1
 5055               	.LVL450:
 5056 1da4 10E0      		ldi r17,lo8(0)
 5057               	.LVL451:
 5058 1da6 1986      		std Y+9,__zero_reg__
 5059 1da8 1886      		std Y+8,__zero_reg__
 5060 1daa 00C0      		rjmp .L361
 5061               	.LVL452:
 5062               	.L389:
 5063               	.LM501:
 5064 1dac 0E94 0000 		call rand
 5065 1db0 63E0      		ldi r22,lo8(3)
 5066 1db2 70E0      		ldi r23,hi8(3)
 5067 1db4 0E94 0000 		call __divmodhi4
 5068 1db8 582E      		mov r5,r24
 5069               	.LM502:
 5070 1dba 1817      		cp r17,r24
 5071 1dbc 01F0      		breq .L389
 5072               	.LVL453:
 5073               	.LM503:
 5074 1dbe 8823      		tst r24
 5075 1dc0 01F4      		brne .L363
 5076               	.LM504:
 5077 1dc2 9920      		tst r9
 5078 1dc4 01F0      		breq .+2
 5079 1dc6 00C0      		rjmp .L364
 5080 1dc8 17E0      		ldi r17,lo8(7)
 5081 1dca C12E      		mov r12,r17
 5082               	.LVL454:
 5083 1dcc 00C0      		rjmp .L365
 5084               	.LVL455:
 5085               	.L363:
 5086               	.LM505:
 5087 1dce E1E0      		ldi r30,lo8(1)
 5088 1dd0 8E17      		cp r24,r30
 5089 1dd2 01F4      		brne .L366
 5090               	.LM506:
 5091 1dd4 8820      		tst r8
 5092 1dd6 01F0      		breq .+2
 5093 1dd8 00C0      		rjmp .L367
 5094 1dda B7E0      		ldi r27,lo8(7)
 5095 1ddc DB2E      		mov r13,r27
 5096 1dde 00C0      		rjmp .L368
 5097               	.LVL456:
 5098               	.L366:
 5099               	.LM507:
 5100 1de0 F2E0      		ldi r31,lo8(2)
 5101 1de2 8F17      		cp r24,r31
 5102 1de4 01F0      		breq .L369
 5103 1de6 B72C      		mov r11,r7
 5104 1de8 C92C      		mov r12,r9
 5105 1dea 00C0      		rjmp .L391
 5106               	.LVL457:
 5107               	.L369:
 5108               	.LM508:
 5109 1dec 7720      		tst r7
 5110 1dee 01F0      		breq .L371
 5111 1df0 C92C      		mov r12,r9
 5112 1df2 D82C      		mov r13,r8
 5113 1df4 BB24      		clr r11
 5114 1df6 00C0      		rjmp .L370
 5115               	.LVL458:
 5116               	.L371:
 5117 1df8 C92C      		mov r12,r9
 5118 1dfa D82C      		mov r13,r8
 5119 1dfc A7E0      		ldi r26,lo8(7)
 5120 1dfe BA2E      		mov r11,r26
 5121               	.L370:
 5122               	.LM509:
 5123 1e00 2B81      		ldd r18,Y+3
 5124 1e02 C216      		cp r12,r18
 5125 1e04 01F4      		brne .L372
 5126 1e06 3A81      		ldd r19,Y+2
 5127 1e08 D316      		cp r13,r19
 5128 1e0a 01F4      		brne .L372
 5129 1e0c 152D      		mov r17,r5
 5130 1e0e 8981      		ldd r24,Y+1
 5131               	.LVL459:
 5132 1e10 B816      		cp r11,r24
 5133 1e12 01F0      		breq .L389
 5134               	.LVL460:
 5135               	.L372:
 5136 1e14 C914      		cp r12,r9
 5137 1e16 01F4      		brne .L392
 5138               	.L373:
 5139 1e18 D814      		cp r13,r8
 5140 1e1a 01F4      		brne .L392
 5141               	.L375:
 5142 1e1c 152D      		mov r17,r5
 5143 1e1e B714      		cp r11,r7
 5144 1e20 01F0      		breq .L389
 5145               	.L392:
 5146 1e22 1601      		movw r2,r12
 5147               	.LVL461:
 5148 1e24 4B2C      		mov r4,r11
 5149 1e26 AA24      		clr r10
 5150 1e28 F7E0      		ldi r31,lo8(7)
 5151 1e2a 6F2E      		mov r6,r31
 5152               	.LVL462:
 5153               	.L383:
 5154               	.LM510:
 5155 1e2c 2914      		cp r2,r9
 5156 1e2e 01F0      		breq .L376
 5157               	.LVL463:
 5158               	.LM511:
 5159 1e30 9920      		tst r9
 5160 1e32 01F4      		brne .L377
 5161 1e34 CA2C      		mov r12,r10
 5162               	.LVL464:
 5163 1e36 00C0      		rjmp .L376
 5164               	.LVL465:
 5165               	.L377:
 5166               	.LM512:
 5167 1e38 97E0      		ldi r25,lo8(7)
 5168 1e3a 9916      		cp r9,r25
 5169 1e3c 01F4      		brne .L376
 5170 1e3e C62C      		mov r12,r6
 5171               	.LVL466:
 5172               	.L376:
 5173               	.LM513:
 5174 1e40 3814      		cp r3,r8
 5175 1e42 01F0      		breq .L378
 5176               	.LVL467:
 5177               	.LM514:
 5178 1e44 8820      		tst r8
 5179 1e46 01F4      		brne .L379
 5180 1e48 DA2C      		mov r13,r10
 5181               	.LVL468:
 5182 1e4a 00C0      		rjmp .L378
 5183               	.LVL469:
 5184               	.L379:
 5185               	.LM515:
 5186 1e4c E7E0      		ldi r30,lo8(7)
 5187 1e4e 8E16      		cp r8,r30
 5188 1e50 01F4      		brne .L378
 5189 1e52 D62C      		mov r13,r6
 5190               	.LVL470:
 5191               	.L378:
 5192               	.LM516:
 5193 1e54 4714      		cp r4,r7
 5194 1e56 01F0      		breq .L380
 5195               	.LVL471:
 5196               	.LM517:
 5197 1e58 7720      		tst r7
 5198 1e5a 01F4      		brne .L381
 5199 1e5c BA2C      		mov r11,r10
 5200               	.LVL472:
 5201 1e5e 00C0      		rjmp .L380
 5202               	.LVL473:
 5203               	.L381:
 5204               	.LM518:
 5205 1e60 F7E0      		ldi r31,lo8(7)
 5206 1e62 7F16      		cp r7,r31
 5207 1e64 01F4      		brne .L380
 5208 1e66 B62C      		mov r11,r6
 5209               	.LVL474:
 5210               	.L380:
 5211               	.LM519:
 5212 1e68 2A81      		ldd r18,Y+2
 5213 1e6a 622F      		mov r22,r18
 5214 1e6c 7727      		clr r23
 5215 1e6e 67FD      		sbrc r22,7
 5216 1e70 7095      		com r23
 5217               	.LVL475:
 5218 1e72 3981      		ldd r19,Y+1
 5219 1e74 432F      		mov r20,r19
 5220 1e76 5527      		clr r21
 5221 1e78 47FD      		sbrc r20,7
 5222 1e7a 5095      		com r21
 5223               	.LVL476:
 5224 1e7c 2C2D      		mov r18,r12
 5225 1e7e 3327      		clr r19
 5226 1e80 27FD      		sbrc r18,7
 5227 1e82 3095      		com r19
 5228               	.LVL477:
 5229 1e84 0D2D      		mov r16,r13
 5230 1e86 1127      		clr r17
 5231 1e88 07FD      		sbrc r16,7
 5232 1e8a 1095      		com r17
 5233               	.LVL478:
 5234 1e8c EB2C      		mov r14,r11
 5235 1e8e FF24      		clr r15
 5236 1e90 E7FC      		sbrc r14,7
 5237 1e92 F094      		com r15
 5238               	.LVL479:
 5239 1e94 EB81      		ldd r30,Y+3
 5240 1e96 8E2F      		mov r24,r30
 5241 1e98 9927      		clr r25
 5242 1e9a 87FD      		sbrc r24,7
 5243 1e9c 9095      		com r25
 5244 1e9e 0E94 0000 		call line
 5245               	.LVL480:
 5246               	.LM520:
 5247 1ea2 8C81      		ldd r24,Y+4
 5248 1ea4 9D81      		ldd r25,Y+5
 5249 1ea6 0E94 0000 		call delay_ms
 5250               	.LM521:
 5251 1eaa 80E0      		ldi r24,lo8(0)
 5252 1eac 0E94 0000 		call fill
 5253               	.LM522:
 5254 1eb0 F7E0      		ldi r31,lo8(7)
 5255 1eb2 AF16      		cp r10,r31
 5256 1eb4 01F4      		brne .L382
 5257 1eb6 9B80      		ldd r9,Y+3
 5258 1eb8 CB82      		std Y+3,r12
 5259               	.LVL481:
 5260 1eba 8A80      		ldd r8,Y+2
 5261               	.LVL482:
 5262 1ebc DA82      		std Y+2,r13
 5263               	.LVL483:
 5264 1ebe 7980      		ldd r7,Y+1
 5265               	.LVL484:
 5266 1ec0 B982      		std Y+1,r11
 5267               	.LVL485:
 5268               	.L382:
 5269               	.LM523:
 5270 1ec2 A394      		inc r10
 5271 1ec4 6A94      		dec r6
 5272 1ec6 28E0      		ldi r18,lo8(8)
 5273 1ec8 A216      		cp r10,r18
 5274 1eca 01F0      		breq .+2
 5275 1ecc 00C0      		rjmp .L383
 5276 1ece 8885      		ldd r24,Y+8
 5277 1ed0 9985      		ldd r25,Y+9
 5278 1ed2 0196      		adiw r24,1
 5279 1ed4 9987      		std Y+9,r25
 5280 1ed6 8887      		std Y+8,r24
 5281 1ed8 152D      		mov r17,r5
 5282               	.L361:
 5283               	.LM524:
 5284 1eda E885      		ldd r30,Y+8
 5285 1edc F985      		ldd r31,Y+9
 5286 1ede 2E81      		ldd r18,Y+6
 5287 1ee0 3F81      		ldd r19,Y+7
 5288 1ee2 E217      		cp r30,r18
 5289 1ee4 F307      		cpc r31,r19
 5290 1ee6 04F4      		brge .+2
 5291 1ee8 00C0      		rjmp .L389
 5292 1eea 00C0      		rjmp .L393
 5293               	.LVL486:
 5294               	.L364:
 5295               	.LM525:
 5296 1eec CC24      		clr r12
 5297               	.L365:
 5298 1eee B72C      		mov r11,r7
 5299               	.L391:
 5300 1ef0 D82C      		mov r13,r8
 5301 1ef2 00C0      		rjmp .L370
 5302               	.LVL487:
 5303               	.L367:
 5304 1ef4 DD24      		clr r13
 5305               	.L368:
 5306 1ef6 B72C      		mov r11,r7
 5307 1ef8 C92C      		mov r12,r9
 5308 1efa 00C0      		rjmp .L370
 5309               	.LVL488:
 5310               	.L393:
 5311               	/* epilogue start */
 5312 1efc 2996      		adiw r28,9
 5313 1efe 0FB6      		in __tmp_reg__,__SREG__
 5314 1f00 F894      		cli
 5315 1f02 DEBF      		out __SP_H__,r29
 5316 1f04 0FBE      		out __SREG__,__tmp_reg__
 5317 1f06 CDBF      		out __SP_L__,r28
 5318 1f08 CF91      		pop r28
 5319 1f0a DF91      		pop r29
 5320 1f0c 1F91      		pop r17
 5321               	.LVL489:
 5322 1f0e 0F91      		pop r16
 5323               	.LVL490:
 5324 1f10 FF90      		pop r15
 5325 1f12 EF90      		pop r14
 5326               	.LVL491:
 5327 1f14 DF90      		pop r13
 5328               	.LVL492:
 5329 1f16 CF90      		pop r12
 5330               	.LVL493:
 5331 1f18 BF90      		pop r11
 5332               	.LVL494:
 5333 1f1a AF90      		pop r10
 5334               	.LVL495:
 5335 1f1c 9F90      		pop r9
 5336               	.LVL496:
 5337 1f1e 8F90      		pop r8
 5338               	.LVL497:
 5339 1f20 7F90      		pop r7
 5340               	.LVL498:
 5341 1f22 6F90      		pop r6
 5342 1f24 5F90      		pop r5
 5343               	.LVL499:
 5344 1f26 4F90      		pop r4
 5345 1f28 3F90      		pop r3
 5346 1f2a 2F90      		pop r2
 5347 1f2c 0895      		ret
 5348               	.LFE34:
 5350               	.global	planes_exchange
 5352               	planes_exchange:
 5353               	.LFB33:
 5354               	.LM526:
 5355               	.LVL500:
 5356 1f2e 2F92      		push r2
 5357 1f30 3F92      		push r3
 5358 1f32 4F92      		push r4
 5359 1f34 5F92      		push r5
 5360 1f36 7F92      		push r7
 5361 1f38 8F92      		push r8
 5362 1f3a 9F92      		push r9
 5363 1f3c AF92      		push r10
 5364 1f3e BF92      		push r11
 5365 1f40 CF92      		push r12
 5366 1f42 DF92      		push r13
 5367 1f44 EF92      		push r14
 5368 1f46 FF92      		push r15
 5369 1f48 0F93      		push r16
 5370 1f4a 1F93      		push r17
 5371 1f4c DF93      		push r29
 5372 1f4e CF93      		push r28
 5373 1f50 00D0      		rcall .
 5374 1f52 0F92      		push __tmp_reg__
 5375 1f54 CDB7      		in r28,__SP_L__
 5376 1f56 DEB7      		in r29,__SP_H__
 5377               	/* prologue: function */
 5378               	/* frame size = 3 */
 5379 1f58 1C01      		movw r2,r24
 5380 1f5a 2B01      		movw r4,r22
 5381               	.LM527:
 5382 1f5c 10E0      		ldi r17,lo8(0)
 5383               	.LVL501:
 5384 1f5e AA24      		clr r10
 5385 1f60 A394      		inc r10
 5386               	.LVL502:
 5387 1f62 82E0      		ldi r24,lo8(2)
 5388               	.LVL503:
 5389 1f64 8983      		std Y+1,r24
 5390               	.LVL504:
 5391 1f66 04E0      		ldi r16,lo8(4)
 5392               	.LVL505:
 5393               	.L398:
 5394               	.LM528:
 5395 1f68 1123      		tst r17
 5396 1f6a 01F4      		brne .L395
 5397 1f6c 0E94 0000 		call rand
 5398 1f70 62E0      		ldi r22,lo8(2)
 5399 1f72 70E0      		ldi r23,hi8(2)
 5400 1f74 0E94 0000 		call __divmodhi4
 5401 1f78 A82E      		mov r10,r24
 5402 1f7a 00C0      		rjmp .L396
 5403               	.LVL506:
 5404               	.L395:
 5405               	.LM529:
 5406 1f7c 1130      		cpi r17,lo8(1)
 5407 1f7e 01F4      		brne .L397
 5408 1f80 0E94 0000 		call rand
 5409 1f84 62E0      		ldi r22,lo8(2)
 5410 1f86 70E0      		ldi r23,hi8(2)
 5411 1f88 0E94 0000 		call __divmodhi4
 5412 1f8c 8E5F      		subi r24,lo8(-(2))
 5413 1f8e 8983      		std Y+1,r24
 5414               	.LVL507:
 5415 1f90 00C0      		rjmp .L396
 5416               	.LVL508:
 5417               	.L397:
 5418               	.LM530:
 5419 1f92 0E94 0000 		call rand
 5420 1f96 62E0      		ldi r22,lo8(2)
 5421 1f98 70E0      		ldi r23,hi8(2)
 5422 1f9a 0E94 0000 		call __divmodhi4
 5423 1f9e 082F      		mov r16,r24
 5424 1fa0 0C5F      		subi r16,lo8(-(4))
 5425               	.L396:
 5426               	.LM531:
 5427 1fa2 1F5F      		subi r17,lo8(-(1))
 5428 1fa4 1330      		cpi r17,lo8(3)
 5429 1fa6 01F4      		brne .L398
 5430 1fa8 B02E      		mov r11,r16
 5431               	.LM532:
 5432 1faa AA20      		tst r10
 5433 1fac 01F4      		brne .L399
 5434               	.LVL509:
 5435 1fae 80E0      		ldi r24,lo8(0)
 5436 1fb0 90E0      		ldi r25,hi8(0)
 5437 1fb2 00C0      		rjmp .L433
 5438               	.L399:
 5439               	.LM533:
 5440 1fb4 91E0      		ldi r25,lo8(1)
 5441 1fb6 A916      		cp r10,r25
 5442 1fb8 01F4      		brne .L400
 5443 1fba 87E0      		ldi r24,lo8(7)
 5444 1fbc 90E0      		ldi r25,hi8(7)
 5445               	.L433:
 5446 1fbe 0E94 0000 		call setplane_x
 5447               	.L400:
 5448               	.LM534:
 5449 1fc2 E981      		ldd r30,Y+1
 5450 1fc4 E230      		cpi r30,lo8(2)
 5451 1fc6 01F4      		brne .L401
 5452 1fc8 80E0      		ldi r24,lo8(0)
 5453 1fca 90E0      		ldi r25,hi8(0)
 5454 1fcc 00C0      		rjmp .L434
 5455               	.L401:
 5456               	.LM535:
 5457 1fce F981      		ldd r31,Y+1
 5458 1fd0 F330      		cpi r31,lo8(3)
 5459 1fd2 01F4      		brne .L402
 5460 1fd4 87E0      		ldi r24,lo8(7)
 5461 1fd6 90E0      		ldi r25,hi8(7)
 5462               	.L434:
 5463 1fd8 0E94 0000 		call setplane_y
 5464               	.L402:
 5465               	.LM536:
 5466 1fdc 0430      		cpi r16,lo8(4)
 5467 1fde 01F4      		brne .L403
 5468               	.LVL510:
 5469 1fe0 80E0      		ldi r24,lo8(0)
 5470 1fe2 90E0      		ldi r25,hi8(0)
 5471 1fe4 0E94 0000 		call setplane_z
 5472 1fe8 44E0      		ldi r20,lo8(4)
 5473 1fea B42E      		mov r11,r20
 5474               	.LVL511:
 5475 1fec 00C0      		rjmp .L404
 5476               	.LVL512:
 5477               	.L403:
 5478               	.LM537:
 5479 1fee 0530      		cpi r16,lo8(5)
 5480 1ff0 01F0      		breq .L405
 5481 1ff2 B02E      		mov r11,r16
 5482 1ff4 00C0      		rjmp .L404
 5483               	.L405:
 5484 1ff6 87E0      		ldi r24,lo8(7)
 5485 1ff8 90E0      		ldi r25,hi8(7)
 5486 1ffa 0E94 0000 		call setplane_z
 5487               	.LVL513:
 5488               	.L404:
 5489 1ffe 11E0      		ldi r17,lo8(1)
 5490               	.LVL514:
 5491 2000 8824      		clr r8
 5492 2002 9924      		clr r9
 5493 2004 00C0      		rjmp .L406
 5494               	.LVL515:
 5495               	.L429:
 5496               	.LM538:
 5497 2006 0E94 0000 		call rand
 5498 200a 63E0      		ldi r22,lo8(3)
 5499 200c 70E0      		ldi r23,hi8(3)
 5500 200e 0E94 0000 		call __divmodhi4
 5501 2012 782E      		mov r7,r24
 5502               	.LM539:
 5503 2014 8117      		cp r24,r17
 5504 2016 01F0      		breq .L429
 5505               	.LVL516:
 5506 2018 00E0      		ldi r16,lo8(0)
 5507 201a 10E0      		ldi r17,hi8(0)
 5508 201c 81E0      		ldi r24,lo8(1)
 5509 201e 90E0      		ldi r25,hi8(1)
 5510               	.LVL517:
 5511 2020 9B83      		std Y+3,r25
 5512 2022 8A83      		std Y+2,r24
 5513 2024 37E0      		ldi r19,lo8(7)
 5514 2026 C32E      		mov r12,r19
 5515 2028 D12C      		mov r13,__zero_reg__
 5516 202a 26E0      		ldi r18,lo8(6)
 5517 202c E22E      		mov r14,r18
 5518 202e F12C      		mov r15,__zero_reg__
 5519               	.L427:
 5520               	.LM540:
 5521 2030 7720      		tst r7
 5522 2032 01F4      		brne .L408
 5523               	.LM541:
 5524 2034 AA20      		tst r10
 5525 2036 01F4      		brne .L409
 5526               	.LM542:
 5527 2038 C801      		movw r24,r16
 5528 203a 0E94 0000 		call clrplane_x
 5529               	.LM543:
 5530 203e 8A81      		ldd r24,Y+2
 5531 2040 9B81      		ldd r25,Y+3
 5532 2042 0E94 0000 		call setplane_x
 5533 2046 9A81      		ldd r25,Y+2
 5534 2048 9730      		cpi r25,lo8(7)
 5535 204a 01F4      		brne .L411
 5536 204c AA24      		clr r10
 5537 204e A394      		inc r10
 5538 2050 00C0      		rjmp .L411
 5539               	.L409:
 5540               	.LM544:
 5541 2052 C601      		movw r24,r12
 5542 2054 0E94 0000 		call clrplane_x
 5543               	.LM545:
 5544 2058 C701      		movw r24,r14
 5545 205a 0E94 0000 		call setplane_x
 5546               	.LM546:
 5547 205e EA81      		ldd r30,Y+2
 5548 2060 E730      		cpi r30,lo8(7)
 5549 2062 01F4      		brne .L411
 5550 2064 AA24      		clr r10
 5551               	.L411:
 5552               	.LM547:
 5553 2066 F981      		ldd r31,Y+1
 5554 2068 F230      		cpi r31,lo8(2)
 5555 206a 01F4      		brne .L412
 5556 206c 80E0      		ldi r24,lo8(0)
 5557 206e 90E0      		ldi r25,hi8(0)
 5558 2070 00C0      		rjmp .L435
 5559               	.L412:
 5560               	.LM548:
 5561 2072 87E0      		ldi r24,lo8(7)
 5562 2074 90E0      		ldi r25,hi8(7)
 5563               	.L435:
 5564 2076 0E94 0000 		call setplane_y
 5565               	.LM549:
 5566 207a 84E0      		ldi r24,lo8(4)
 5567 207c B816      		cp r11,r24
 5568 207e 01F4      		brne .L421
 5569 2080 00C0      		rjmp .L438
 5570               	.L408:
 5571               	.LM550:
 5572 2082 91E0      		ldi r25,lo8(1)
 5573 2084 7916      		cp r7,r25
 5574 2086 01F4      		brne .L416
 5575               	.LM551:
 5576 2088 E981      		ldd r30,Y+1
 5577 208a E230      		cpi r30,lo8(2)
 5578 208c 01F4      		brne .L417
 5579               	.LM552:
 5580 208e C801      		movw r24,r16
 5581 2090 0E94 0000 		call clrplane_y
 5582               	.LM553:
 5583 2094 8A81      		ldd r24,Y+2
 5584 2096 9B81      		ldd r25,Y+3
 5585 2098 0E94 0000 		call setplane_y
 5586               	.LM554:
 5587 209c FA81      		ldd r31,Y+2
 5588 209e F730      		cpi r31,lo8(7)
 5589 20a0 01F4      		brne .L418
 5590 20a2 83E0      		ldi r24,lo8(3)
 5591 20a4 8983      		std Y+1,r24
 5592               	.LVL518:
 5593 20a6 00C0      		rjmp .L418
 5594               	.L417:
 5595               	.LM555:
 5596 20a8 C601      		movw r24,r12
 5597 20aa 0E94 0000 		call clrplane_y
 5598               	.LM556:
 5599 20ae C701      		movw r24,r14
 5600 20b0 0E94 0000 		call setplane_y
 5601               	.LM557:
 5602 20b4 9A81      		ldd r25,Y+2
 5603 20b6 9730      		cpi r25,lo8(7)
 5604 20b8 01F4      		brne .L418
 5605 20ba E2E0      		ldi r30,lo8(2)
 5606 20bc E983      		std Y+1,r30
 5607               	.LVL519:
 5608               	.L418:
 5609               	.LM558:
 5610 20be AA20      		tst r10
 5611 20c0 01F4      		brne .L419
 5612 20c2 80E0      		ldi r24,lo8(0)
 5613 20c4 90E0      		ldi r25,hi8(0)
 5614 20c6 00C0      		rjmp .L436
 5615               	.L419:
 5616               	.LM559:
 5617 20c8 87E0      		ldi r24,lo8(7)
 5618 20ca 90E0      		ldi r25,hi8(7)
 5619               	.L436:
 5620 20cc 0E94 0000 		call setplane_x
 5621               	.LM560:
 5622 20d0 F4E0      		ldi r31,lo8(4)
 5623 20d2 BF16      		cp r11,r31
 5624 20d4 01F4      		brne .L421
 5625               	.L438:
 5626 20d6 80E0      		ldi r24,lo8(0)
 5627 20d8 90E0      		ldi r25,hi8(0)
 5628               	.L440:
 5629 20da 0E94 0000 		call setplane_z
 5630 20de 00C0      		rjmp .L415
 5631               	.L421:
 5632               	.LM561:
 5633 20e0 87E0      		ldi r24,lo8(7)
 5634 20e2 90E0      		ldi r25,hi8(7)
 5635 20e4 00C0      		rjmp .L440
 5636               	.L416:
 5637               	.LM562:
 5638 20e6 84E0      		ldi r24,lo8(4)
 5639 20e8 B816      		cp r11,r24
 5640 20ea 01F4      		brne .L422
 5641               	.LM563:
 5642 20ec C801      		movw r24,r16
 5643 20ee 0E94 0000 		call clrplane_z
 5644               	.LM564:
 5645 20f2 8A81      		ldd r24,Y+2
 5646 20f4 9B81      		ldd r25,Y+3
 5647 20f6 0E94 0000 		call setplane_z
 5648               	.LM565:
 5649 20fa 9A81      		ldd r25,Y+2
 5650 20fc 9730      		cpi r25,lo8(7)
 5651 20fe 01F4      		brne .L423
 5652 2100 95E0      		ldi r25,lo8(5)
 5653 2102 B92E      		mov r11,r25
 5654 2104 00C0      		rjmp .L423
 5655               	.L422:
 5656               	.LM566:
 5657 2106 C601      		movw r24,r12
 5658 2108 0E94 0000 		call clrplane_z
 5659               	.LM567:
 5660 210c C701      		movw r24,r14
 5661 210e 0E94 0000 		call setplane_z
 5662               	.LM568:
 5663 2112 EA81      		ldd r30,Y+2
 5664 2114 E730      		cpi r30,lo8(7)
 5665 2116 01F4      		brne .L423
 5666 2118 84E0      		ldi r24,lo8(4)
 5667 211a B82E      		mov r11,r24
 5668               	.L423:
 5669               	.LM569:
 5670 211c AA20      		tst r10
 5671 211e 01F4      		brne .L424
 5672 2120 80E0      		ldi r24,lo8(0)
 5673 2122 90E0      		ldi r25,hi8(0)
 5674 2124 00C0      		rjmp .L437
 5675               	.L424:
 5676               	.LM570:
 5677 2126 87E0      		ldi r24,lo8(7)
 5678 2128 90E0      		ldi r25,hi8(7)
 5679               	.L437:
 5680 212a 0E94 0000 		call setplane_x
 5681               	.LM571:
 5682 212e F981      		ldd r31,Y+1
 5683 2130 F230      		cpi r31,lo8(2)
 5684 2132 01F4      		brne .L426
 5685 2134 80E0      		ldi r24,lo8(0)
 5686 2136 90E0      		ldi r25,hi8(0)
 5687 2138 00C0      		rjmp .L439
 5688               	.L426:
 5689               	.LM572:
 5690 213a 87E0      		ldi r24,lo8(7)
 5691 213c 90E0      		ldi r25,hi8(7)
 5692               	.L439:
 5693 213e 0E94 0000 		call setplane_y
 5694               	.L415:
 5695               	.LM573:
 5696 2142 C101      		movw r24,r2
 5697 2144 0E94 0000 		call delay_ms
 5698 2148 0F5F      		subi r16,lo8(-(1))
 5699 214a 1F4F      		sbci r17,hi8(-(1))
 5700 214c 8A81      		ldd r24,Y+2
 5701 214e 9B81      		ldd r25,Y+3
 5702 2150 0196      		adiw r24,1
 5703 2152 9B83      		std Y+3,r25
 5704 2154 8A83      		std Y+2,r24
 5705 2156 0894      		sec
 5706 2158 C108      		sbc r12,__zero_reg__
 5707 215a D108      		sbc r13,__zero_reg__
 5708 215c 0894      		sec
 5709 215e E108      		sbc r14,__zero_reg__
 5710 2160 F108      		sbc r15,__zero_reg__
 5711               	.LM574:
 5712 2162 0730      		cpi r16,7
 5713 2164 1105      		cpc r17,__zero_reg__
 5714 2166 01F0      		breq .+2
 5715 2168 00C0      		rjmp .L427
 5716 216a 0894      		sec
 5717 216c 811C      		adc r8,__zero_reg__
 5718 216e 911C      		adc r9,__zero_reg__
 5719 2170 172D      		mov r17,r7
 5720               	.LVL520:
 5721               	.L406:
 5722               	.LM575:
 5723 2172 8414      		cp r8,r4
 5724 2174 9504      		cpc r9,r5
 5725 2176 04F4      		brge .+2
 5726 2178 00C0      		rjmp .L429
 5727               	/* epilogue start */
 5728               	.LM576:
 5729 217a 0F90      		pop __tmp_reg__
 5730 217c 0F90      		pop __tmp_reg__
 5731 217e 0F90      		pop __tmp_reg__
 5732 2180 CF91      		pop r28
 5733 2182 DF91      		pop r29
 5734 2184 1F91      		pop r17
 5735               	.LVL521:
 5736 2186 0F91      		pop r16
 5737 2188 FF90      		pop r15
 5738 218a EF90      		pop r14
 5739 218c DF90      		pop r13
 5740 218e CF90      		pop r12
 5741 2190 BF90      		pop r11
 5742               	.LVL522:
 5743 2192 AF90      		pop r10
 5744               	.LVL523:
 5745 2194 9F90      		pop r9
 5746 2196 8F90      		pop r8
 5747 2198 7F90      		pop r7
 5748               	.LVL524:
 5749 219a 5F90      		pop r5
 5750 219c 4F90      		pop r4
 5751               	.LVL525:
 5752 219e 3F90      		pop r3
 5753 21a0 2F90      		pop r2
 5754               	.LVL526:
 5755 21a2 0895      		ret
 5756               	.LFE33:
 5758               	.global	planes_in_order
 5760               	planes_in_order:
 5761               	.LFB32:
 5762               	.LM577:
 5763               	.LVL527:
 5764 21a4 2F92      		push r2
 5765 21a6 3F92      		push r3
 5766 21a8 4F92      		push r4
 5767 21aa 5F92      		push r5
 5768 21ac 6F92      		push r6
 5769 21ae 7F92      		push r7
 5770 21b0 8F92      		push r8
 5771 21b2 9F92      		push r9
 5772 21b4 AF92      		push r10
 5773 21b6 BF92      		push r11
 5774 21b8 CF92      		push r12
 5775 21ba DF92      		push r13
 5776 21bc EF92      		push r14
 5777 21be FF92      		push r15
 5778 21c0 0F93      		push r16
 5779 21c2 1F93      		push r17
 5780 21c4 CF93      		push r28
 5781 21c6 DF93      		push r29
 5782               	/* prologue: function */
 5783               	/* frame size = 0 */
 5784 21c8 2C01      		movw r4,r24
 5785 21ca 4B01      		movw r8,r22
 5786               	.LM578:
 5787 21cc 880C      		lsl r8
 5788 21ce 991C      		rol r9
 5789               	.LVL528:
 5790 21d0 3324      		clr r3
 5791               	.LVL529:
 5792 21d2 DD24      		clr r13
 5793 21d4 D394      		inc r13
 5794               	.LVL530:
 5795 21d6 2224      		clr r2
 5796 21d8 2394      		inc r2
 5797               	.LVL531:
 5798 21da AA24      		clr r10
 5799 21dc BB24      		clr r11
 5800 21de 00C0      		rjmp .L442
 5801               	.LVL532:
 5802               	.L458:
 5803               	.LM579:
 5804 21e0 CC24      		clr r12
 5805 21e2 3320      		tst r3
 5806 21e4 01F4      		brne .L443
 5807 21e6 CC24      		clr r12
 5808 21e8 C394      		inc r12
 5809               	.L443:
 5810 21ea 3C2C      		mov r3,r12
 5811               	.LM580:
 5812 21ec CC20      		tst r12
 5813 21ee 01F0      		breq .L444
 5814               	.L460:
 5815               	.LM581:
 5816 21f0 0E94 0000 		call rand
 5817 21f4 63E0      		ldi r22,lo8(3)
 5818 21f6 70E0      		ldi r23,hi8(3)
 5819 21f8 0E94 0000 		call __divmodhi4
 5820 21fc D82E      		mov r13,r24
 5821               	.LM582:
 5822 21fe 8215      		cp r24,r2
 5823 2200 01F0      		breq .L460
 5824               	.LVL533:
 5825 2202 282E      		mov r2,r24
 5826               	.LVL534:
 5827               	.L444:
 5828 2204 57E0      		ldi r21,lo8(7)
 5829 2206 E52E      		mov r14,r21
 5830 2208 F12C      		mov r15,__zero_reg__
 5831               	.L457:
 5832               	.LM583:
 5833 220a CC20      		tst r12
 5834 220c 01F0      		breq .L446
 5835 220e C0E0      		ldi r28,lo8(0)
 5836 2210 D0E0      		ldi r29,hi8(0)
 5837 2212 0FEF      		ldi r16,lo8(-1)
 5838 2214 1FEF      		ldi r17,hi8(-1)
 5839               	.LM584:
 5840 2216 3701      		movw r6,r14
 5841 2218 0894      		sec
 5842 221a 611C      		adc r6,__zero_reg__
 5843 221c 711C      		adc r7,__zero_reg__
 5844 221e 00C0      		rjmp .L447
 5845               	.L451:
 5846               	.LM585:
 5847 2220 DD20      		tst r13
 5848 2222 01F4      		brne .L448
 5849               	.LM586:
 5850 2224 C801      		movw r24,r16
 5851 2226 0E94 0000 		call clrplane_x
 5852               	.LM587:
 5853 222a CE01      		movw r24,r28
 5854 222c 0E94 0000 		call setplane_x
 5855 2230 00C0      		rjmp .L449
 5856               	.LVL535:
 5857               	.L448:
 5858               	.LM588:
 5859 2232 21E0      		ldi r18,lo8(1)
 5860 2234 D216      		cp r13,r18
 5861 2236 01F4      		brne .L450
 5862               	.LM589:
 5863 2238 C801      		movw r24,r16
 5864 223a 0E94 0000 		call clrplane_y
 5865               	.LM590:
 5866 223e CE01      		movw r24,r28
 5867 2240 0E94 0000 		call setplane_y
 5868 2244 00C0      		rjmp .L449
 5869               	.LVL536:
 5870               	.L450:
 5871               	.LM591:
 5872 2246 C801      		movw r24,r16
 5873 2248 0E94 0000 		call clrplane_z
 5874               	.LM592:
 5875 224c CE01      		movw r24,r28
 5876 224e 0E94 0000 		call setplane_z
 5877               	.L449:
 5878               	.LM593:
 5879 2252 C201      		movw r24,r4
 5880 2254 0E94 0000 		call delay_ms
 5881 2258 2196      		adiw r28,1
 5882 225a 0F5F      		subi r16,lo8(-(1))
 5883 225c 1F4F      		sbci r17,hi8(-(1))
 5884               	.LVL537:
 5885               	.L447:
 5886               	.LM594:
 5887 225e C615      		cp r28,r6
 5888 2260 D705      		cpc r29,r7
 5889 2262 04F0      		brlt .L451
 5890 2264 00C0      		rjmp .L452
 5891               	.L446:
 5892 2266 7E2C      		mov r7,r14
 5893 2268 C0E0      		ldi r28,lo8(0)
 5894 226a D0E0      		ldi r29,hi8(0)
 5895 226c 8701      		movw r16,r14
 5896 226e 0F5F      		subi r16,lo8(-(1))
 5897 2270 1F4F      		sbci r17,hi8(-(1))
 5898               	.L456:
 5899               	.LM595:
 5900 2272 DD20      		tst r13
 5901 2274 01F4      		brne .L453
 5902               	.LM596:
 5903 2276 CE01      		movw r24,r28
 5904 2278 8E0D      		add r24,r14
 5905 227a 9F1D      		adc r25,r15
 5906 227c 0E94 0000 		call clrplane_x
 5907               	.LM597:
 5908 2280 C801      		movw r24,r16
 5909 2282 8C0F      		add r24,r28
 5910 2284 9D1F      		adc r25,r29
 5911 2286 0E94 0000 		call setplane_x
 5912 228a 00C0      		rjmp .L454
 5913               	.LVL538:
 5914               	.L453:
 5915 228c CE01      		movw r24,r28
 5916 228e 8E0D      		add r24,r14
 5917 2290 9F1D      		adc r25,r15
 5918               	.LM598:
 5919 2292 21E0      		ldi r18,lo8(1)
 5920 2294 D216      		cp r13,r18
 5921 2296 01F4      		brne .L455
 5922               	.LM599:
 5923 2298 0E94 0000 		call clrplane_y
 5924               	.LM600:
 5925 229c C801      		movw r24,r16
 5926 229e 8C0F      		add r24,r28
 5927 22a0 9D1F      		adc r25,r29
 5928 22a2 0E94 0000 		call setplane_y
 5929 22a6 00C0      		rjmp .L454
 5930               	.L455:
 5931               	.LM601:
 5932 22a8 0E94 0000 		call clrplane_z
 5933               	.LM602:
 5934 22ac C801      		movw r24,r16
 5935 22ae 8C0F      		add r24,r28
 5936 22b0 9D1F      		adc r25,r29
 5937 22b2 0E94 0000 		call setplane_z
 5938               	.L454:
 5939               	.LM603:
 5940 22b6 C201      		movw r24,r4
 5941 22b8 0E94 0000 		call delay_ms
 5942 22bc 2196      		adiw r28,1
 5943               	.LM604:
 5944 22be 872D      		mov r24,r7
 5945 22c0 8C0F      		add r24,r28
 5946 22c2 8830      		cpi r24,lo8(8)
 5947 22c4 01F4      		brne .L456
 5948               	.LVL539:
 5949               	.L452:
 5950 22c6 0894      		sec
 5951 22c8 E108      		sbc r14,__zero_reg__
 5952 22ca F108      		sbc r15,__zero_reg__
 5953               	.LM605:
 5954 22cc 8FEF      		ldi r24,lo8(-1)
 5955 22ce E816      		cp r14,r24
 5956 22d0 8FEF      		ldi r24,hi8(-1)
 5957 22d2 F806      		cpc r15,r24
 5958 22d4 01F0      		breq .+2
 5959 22d6 00C0      		rjmp .L457
 5960 22d8 0894      		sec
 5961 22da A11C      		adc r10,__zero_reg__
 5962 22dc B11C      		adc r11,__zero_reg__
 5963               	.LVL540:
 5964               	.L442:
 5965               	.LM606:
 5966 22de A814      		cp r10,r8
 5967 22e0 B904      		cpc r11,r9
 5968 22e2 04F4      		brge .+2
 5969 22e4 00C0      		rjmp .L458
 5970               	/* epilogue start */
 5971               	.LM607:
 5972 22e6 DF91      		pop r29
 5973 22e8 CF91      		pop r28
 5974 22ea 1F91      		pop r17
 5975 22ec 0F91      		pop r16
 5976 22ee FF90      		pop r15
 5977 22f0 EF90      		pop r14
 5978 22f2 DF90      		pop r13
 5979               	.LVL541:
 5980 22f4 CF90      		pop r12
 5981 22f6 BF90      		pop r11
 5982 22f8 AF90      		pop r10
 5983 22fa 9F90      		pop r9
 5984 22fc 8F90      		pop r8
 5985 22fe 7F90      		pop r7
 5986 2300 6F90      		pop r6
 5987 2302 5F90      		pop r5
 5988 2304 4F90      		pop r4
 5989               	.LVL542:
 5990 2306 3F90      		pop r3
 5991               	.LVL543:
 5992 2308 2F90      		pop r2
 5993               	.LVL544:
 5994 230a 0895      		ret
 5995               	.LFE32:
 5997               	.global	effect_stringfly2
 5999               	effect_stringfly2:
 6000               	.LFB26:
 6001               	.LM608:
 6002               	.LVL545:
 6003 230c 2F92      		push r2
 6004 230e 3F92      		push r3
 6005 2310 4F92      		push r4
 6006 2312 5F92      		push r5
 6007 2314 6F92      		push r6
 6008 2316 7F92      		push r7
 6009 2318 8F92      		push r8
 6010 231a 9F92      		push r9
 6011 231c AF92      		push r10
 6012 231e BF92      		push r11
 6013 2320 CF92      		push r12
 6014 2322 DF92      		push r13
 6015 2324 EF92      		push r14
 6016 2326 FF92      		push r15
 6017 2328 0F93      		push r16
 6018 232a 1F93      		push r17
 6019 232c DF93      		push r29
 6020 232e CF93      		push r28
 6021 2330 00D0      		rcall .
 6022 2332 00D0      		rcall .
 6023 2334 0F92      		push __tmp_reg__
 6024 2336 CDB7      		in r28,__SP_L__
 6025 2338 DEB7      		in r29,__SP_H__
 6026               	/* prologue: function */
 6027               	/* frame size = 5 */
 6028 233a 3C01      		movw r6,r24
 6029               	.LM609:
 6030 233c 2E01      		movw r4,r28
 6031 233e 0894      		sec
 6032 2340 411C      		adc r4,__zero_reg__
 6033 2342 511C      		adc r5,__zero_reg__
 6034               	.LM610:
 6035 2344 E0E8      		ldi r30,lo8(128)
 6036 2346 2E2E      		mov r2,r30
 6037 2348 312C      		mov r3,__zero_reg__
 6038 234a 00C0      		rjmp .L465
 6039               	.LVL546:
 6040               	.L478:
 6041               	.LM611:
 6042 234c B201      		movw r22,r4
 6043 234e 0E94 0000 		call font_getchar
 6044 2352 EE24      		clr r14
 6045 2354 FF24      		clr r15
 6046               	.LVL547:
 6047 2356 00C0      		rjmp .L466
 6048               	.LVL548:
 6049               	.L468:
 6050               	.LM612:
 6051 2358 9101      		movw r18,r2
 6052 235a 002E      		mov r0,r16
 6053 235c 00C0      		rjmp 2f
 6054 235e 3595      	1:	asr r19
 6055 2360 2795      		ror r18
 6056 2362 0A94      	2:	dec r0
 6057 2364 02F4      		brpl 1b
 6058 2366 F501      		movw r30,r10
 6059 2368 8081      		ld r24,Z
 6060 236a 90E0      		ldi r25,lo8(0)
 6061 236c 2823      		and r18,r24
 6062 236e 3923      		and r19,r25
 6063 2370 232B      		or r18,r19
 6064 2372 01F0      		breq .L467
 6065               	.LM613:
 6066 2374 87E0      		ldi r24,lo8(7)
 6067 2376 90E0      		ldi r25,hi8(7)
 6068 2378 B601      		movw r22,r12
 6069 237a A801      		movw r20,r16
 6070 237c 0E94 0000 		call setvoxel
 6071               	.L467:
 6072               	.LM614:
 6073 2380 0F5F      		subi r16,lo8(-(1))
 6074 2382 1F4F      		sbci r17,hi8(-(1))
 6075 2384 0830      		cpi r16,8
 6076 2386 1105      		cpc r17,__zero_reg__
 6077 2388 01F4      		brne .L468
 6078               	.LM615:
 6079 238a 0894      		sec
 6080 238c E11C      		adc r14,__zero_reg__
 6081 238e F11C      		adc r15,__zero_reg__
 6082 2390 F5E0      		ldi r31,lo8(5)
 6083 2392 EF16      		cp r14,r31
 6084 2394 F104      		cpc r15,__zero_reg__
 6085 2396 01F0      		breq .L469
 6086               	.LVL549:
 6087               	.L466:
 6088 2398 00E0      		ldi r16,lo8(0)
 6089 239a 10E0      		ldi r17,hi8(0)
 6090               	.LM616:
 6091 239c 5201      		movw r10,r4
 6092               	.LVL550:
 6093 239e AE0C      		add r10,r14
 6094 23a0 BF1C      		adc r11,r15
 6095               	.LM617:
 6096 23a2 72E0      		ldi r23,lo8(2)
 6097 23a4 C72E      		mov r12,r23
 6098 23a6 D12C      		mov r13,__zero_reg__
 6099 23a8 CE0C      		add r12,r14
 6100 23aa DF1C      		adc r13,r15
 6101 23ac 00C0      		rjmp .L468
 6102               	.L469:
 6103               	.LM618:
 6104 23ae AA24      		clr r10
 6105 23b0 BB24      		clr r11
 6106               	.LVL551:
 6107               	.L477:
 6108               	.LM619:
 6109 23b2 8CED      		ldi r24,lo8(1500)
 6110 23b4 95E0      		ldi r25,hi8(1500)
 6111 23b6 0E94 0000 		call delay_ms
 6112 23ba CC24      		clr r12
 6113 23bc DD24      		clr r13
 6114               	.LVL552:
 6115 23be 00C0      		rjmp .L470
 6116               	.L471:
 6117               	.LM620:
 6118 23c0 C401      		movw r24,r8
 6119 23c2 B701      		movw r22,r14
 6120 23c4 A801      		movw r20,r16
 6121 23c6 0E94 0000 		call getvoxel
 6122 23ca 282F      		mov r18,r24
 6123               	.LM621:
 6124 23cc C601      		movw r24,r12
 6125 23ce B701      		movw r22,r14
 6126 23d0 A801      		movw r20,r16
 6127 23d2 30E0      		ldi r19,lo8(0)
 6128 23d4 0E94 0000 		call altervoxel
 6129               	.LM622:
 6130 23d8 0F5F      		subi r16,lo8(-(1))
 6131 23da 1F4F      		sbci r17,hi8(-(1))
 6132 23dc 0830      		cpi r16,8
 6133 23de 1105      		cpc r17,__zero_reg__
 6134 23e0 01F4      		brne .L471
 6135               	.LM623:
 6136 23e2 0894      		sec
 6137 23e4 E11C      		adc r14,__zero_reg__
 6138 23e6 F11C      		adc r15,__zero_reg__
 6139 23e8 88E0      		ldi r24,lo8(8)
 6140 23ea E816      		cp r14,r24
 6141 23ec F104      		cpc r15,__zero_reg__
 6142 23ee 01F0      		breq .L472
 6143               	.L474:
 6144 23f0 00E0      		ldi r16,lo8(0)
 6145 23f2 10E0      		ldi r17,hi8(0)
 6146 23f4 00C0      		rjmp .L471
 6147               	.L472:
 6148 23f6 6401      		movw r12,r8
 6149               	.LM624:
 6150 23f8 E7E0      		ldi r30,lo8(7)
 6151 23fa 8E16      		cp r8,r30
 6152 23fc 9104      		cpc r9,__zero_reg__
 6153 23fe 01F4      		brne .L470
 6154               	.LVL553:
 6155 2400 EE24      		clr r14
 6156 2402 FF24      		clr r15
 6157               	.LVL554:
 6158 2404 00C0      		rjmp .L473
 6159               	.LVL555:
 6160               	.L470:
 6161 2406 EE24      		clr r14
 6162 2408 FF24      		clr r15
 6163               	.LM625:
 6164 240a 4601      		movw r8,r12
 6165 240c 0894      		sec
 6166 240e 811C      		adc r8,__zero_reg__
 6167 2410 911C      		adc r9,__zero_reg__
 6168 2412 00C0      		rjmp .L474
 6169               	.LVL556:
 6170               	.L475:
 6171               	.LM626:
 6172 2414 87E0      		ldi r24,lo8(7)
 6173 2416 90E0      		ldi r25,hi8(7)
 6174 2418 B701      		movw r22,r14
 6175 241a A801      		movw r20,r16
 6176 241c 0E94 0000 		call clrvoxel
 6177               	.LM627:
 6178 2420 0F5F      		subi r16,lo8(-(1))
 6179 2422 1F4F      		sbci r17,hi8(-(1))
 6180 2424 0830      		cpi r16,8
 6181 2426 1105      		cpc r17,__zero_reg__
 6182 2428 01F4      		brne .L475
 6183               	.LM628:
 6184 242a 0894      		sec
 6185 242c E11C      		adc r14,__zero_reg__
 6186 242e F11C      		adc r15,__zero_reg__
 6187 2430 F8E0      		ldi r31,lo8(8)
 6188 2432 EF16      		cp r14,r31
 6189 2434 F104      		cpc r15,__zero_reg__
 6190 2436 01F0      		breq .L476
 6191               	.L473:
 6192 2438 00E0      		ldi r16,lo8(0)
 6193 243a 10E0      		ldi r17,hi8(0)
 6194 243c 00C0      		rjmp .L475
 6195               	.L476:
 6196               	.LM629:
 6197 243e 0894      		sec
 6198 2440 A11C      		adc r10,__zero_reg__
 6199 2442 B11C      		adc r11,__zero_reg__
 6200 2444 86E0      		ldi r24,lo8(6)
 6201 2446 A816      		cp r10,r24
 6202 2448 B104      		cpc r11,__zero_reg__
 6203 244a 01F0      		breq .+2
 6204 244c 00C0      		rjmp .L477
 6205               	.LM630:
 6206 244e 0894      		sec
 6207 2450 611C      		adc r6,__zero_reg__
 6208 2452 711C      		adc r7,__zero_reg__
 6209               	.LVL557:
 6210               	.L465:
 6211               	.LM631:
 6212 2454 F301      		movw r30,r6
 6213 2456 8081      		ld r24,Z
 6214 2458 8823      		tst r24
 6215 245a 01F0      		breq .+2
 6216 245c 00C0      		rjmp .L478
 6217 245e AA24      		clr r10
 6218 2460 BB24      		clr r11
 6219               	.LVL558:
 6220               	.L486:
 6221               	.LM632:
 6222 2462 8CED      		ldi r24,lo8(1500)
 6223 2464 95E0      		ldi r25,hi8(1500)
 6224 2466 0E94 0000 		call delay_ms
 6225 246a CC24      		clr r12
 6226 246c DD24      		clr r13
 6227               	.LVL559:
 6228 246e 00C0      		rjmp .L479
 6229               	.L480:
 6230               	.LM633:
 6231 2470 C401      		movw r24,r8
 6232 2472 B701      		movw r22,r14
 6233 2474 A801      		movw r20,r16
 6234 2476 0E94 0000 		call getvoxel
 6235 247a 282F      		mov r18,r24
 6236               	.LM634:
 6237 247c C601      		movw r24,r12
 6238 247e B701      		movw r22,r14
 6239 2480 A801      		movw r20,r16
 6240 2482 30E0      		ldi r19,lo8(0)
 6241 2484 0E94 0000 		call altervoxel
 6242               	.LM635:
 6243 2488 0F5F      		subi r16,lo8(-(1))
 6244 248a 1F4F      		sbci r17,hi8(-(1))
 6245 248c 0830      		cpi r16,8
 6246 248e 1105      		cpc r17,__zero_reg__
 6247 2490 01F4      		brne .L480
 6248               	.LM636:
 6249 2492 0894      		sec
 6250 2494 E11C      		adc r14,__zero_reg__
 6251 2496 F11C      		adc r15,__zero_reg__
 6252 2498 F8E0      		ldi r31,lo8(8)
 6253 249a EF16      		cp r14,r31
 6254 249c F104      		cpc r15,__zero_reg__
 6255 249e 01F0      		breq .L481
 6256               	.L483:
 6257 24a0 00E0      		ldi r16,lo8(0)
 6258 24a2 10E0      		ldi r17,hi8(0)
 6259 24a4 00C0      		rjmp .L480
 6260               	.L481:
 6261 24a6 6401      		movw r12,r8
 6262               	.LM637:
 6263 24a8 87E0      		ldi r24,lo8(7)
 6264 24aa 8816      		cp r8,r24
 6265 24ac 9104      		cpc r9,__zero_reg__
 6266 24ae 01F4      		brne .L479
 6267               	.LVL560:
 6268 24b0 EE24      		clr r14
 6269 24b2 FF24      		clr r15
 6270               	.LVL561:
 6271 24b4 00C0      		rjmp .L482
 6272               	.LVL562:
 6273               	.L479:
 6274 24b6 EE24      		clr r14
 6275 24b8 FF24      		clr r15
 6276               	.LM638:
 6277 24ba 4601      		movw r8,r12
 6278 24bc 0894      		sec
 6279 24be 811C      		adc r8,__zero_reg__
 6280 24c0 911C      		adc r9,__zero_reg__
 6281 24c2 00C0      		rjmp .L483
 6282               	.LVL563:
 6283               	.L484:
 6284               	.LM639:
 6285 24c4 87E0      		ldi r24,lo8(7)
 6286 24c6 90E0      		ldi r25,hi8(7)
 6287 24c8 B701      		movw r22,r14
 6288 24ca A801      		movw r20,r16
 6289 24cc 0E94 0000 		call clrvoxel
 6290               	.LM640:
 6291 24d0 0F5F      		subi r16,lo8(-(1))
 6292 24d2 1F4F      		sbci r17,hi8(-(1))
 6293 24d4 0830      		cpi r16,8
 6294 24d6 1105      		cpc r17,__zero_reg__
 6295 24d8 01F4      		brne .L484
 6296               	.LM641:
 6297 24da 0894      		sec
 6298 24dc E11C      		adc r14,__zero_reg__
 6299 24de F11C      		adc r15,__zero_reg__
 6300 24e0 E8E0      		ldi r30,lo8(8)
 6301 24e2 EE16      		cp r14,r30
 6302 24e4 F104      		cpc r15,__zero_reg__
 6303 24e6 01F0      		breq .L485
 6304               	.L482:
 6305 24e8 00E0      		ldi r16,lo8(0)
 6306 24ea 10E0      		ldi r17,hi8(0)
 6307 24ec 00C0      		rjmp .L484
 6308               	.L485:
 6309               	.LM642:
 6310 24ee 0894      		sec
 6311 24f0 A11C      		adc r10,__zero_reg__
 6312 24f2 B11C      		adc r11,__zero_reg__
 6313 24f4 F8E0      		ldi r31,lo8(8)
 6314 24f6 AF16      		cp r10,r31
 6315 24f8 B104      		cpc r11,__zero_reg__
 6316 24fa 01F0      		breq .+2
 6317 24fc 00C0      		rjmp .L486
 6318               	/* epilogue start */
 6319               	.LM643:
 6320 24fe 0F90      		pop __tmp_reg__
 6321 2500 0F90      		pop __tmp_reg__
 6322 2502 0F90      		pop __tmp_reg__
 6323 2504 0F90      		pop __tmp_reg__
 6324 2506 0F90      		pop __tmp_reg__
 6325 2508 CF91      		pop r28
 6326 250a DF91      		pop r29
 6327 250c 1F91      		pop r17
 6328 250e 0F91      		pop r16
 6329               	.LVL564:
 6330 2510 FF90      		pop r15
 6331 2512 EF90      		pop r14
 6332               	.LVL565:
 6333 2514 DF90      		pop r13
 6334 2516 CF90      		pop r12
 6335 2518 BF90      		pop r11
 6336 251a AF90      		pop r10
 6337               	.LVL566:
 6338 251c 9F90      		pop r9
 6339 251e 8F90      		pop r8
 6340               	.LVL567:
 6341 2520 7F90      		pop r7
 6342 2522 6F90      		pop r6
 6343               	.LVL568:
 6344 2524 5F90      		pop r5
 6345 2526 4F90      		pop r4
 6346 2528 3F90      		pop r3
 6347 252a 2F90      		pop r2
 6348 252c 0895      		ret
 6349               	.LFE26:
 6351               	.global	effect_pathmove
 6353               	effect_pathmove:
 6354               	.LFB21:
 6355               	.LM644:
 6356               	.LVL569:
 6357 252e CF92      		push r12
 6358 2530 DF92      		push r13
 6359 2532 EF92      		push r14
 6360 2534 FF92      		push r15
 6361 2536 0F93      		push r16
 6362 2538 1F93      		push r17
 6363 253a CF93      		push r28
 6364 253c DF93      		push r29
 6365               	/* prologue: function */
 6366               	/* frame size = 0 */
 6367 253e 6C01      		movw r12,r24
 6368               	.LM645:
 6369 2540 7B01      		movw r14,r22
 6370               	.LVL570:
 6371 2542 0894      		sec
 6372 2544 E108      		sbc r14,__zero_reg__
 6373 2546 F108      		sbc r15,__zero_reg__
 6374 2548 8B01      		movw r16,r22
 6375 254a 0250      		subi r16,lo8(-(-2))
 6376 254c 1040      		sbci r17,hi8(-(-2))
 6377 254e 080F      		add r16,r24
 6378 2550 191F      		adc r17,r25
 6379 2552 00C0      		rjmp .L498
 6380               	.LVL571:
 6381               	.L500:
 6382 2554 C0E0      		ldi r28,lo8(0)
 6383 2556 D0E0      		ldi r29,hi8(0)
 6384               	.LVL572:
 6385               	.L499:
 6386               	.LM646:
 6387 2558 F801      		movw r30,r16
 6388 255a 8081      		ld r24,Z
 6389               	.LVL573:
 6390 255c 682F      		mov r22,r24
 6391               	.LVL574:
 6392 255e 70E0      		ldi r23,lo8(0)
 6393 2560 6F70      		andi r22,lo8(15)
 6394 2562 7070      		andi r23,hi8(15)
 6395 2564 8295      		swap r24
 6396 2566 8F70      		andi r24,lo8(15)
 6397 2568 90E0      		ldi r25,lo8(0)
 6398 256a AE01      		movw r20,r28
 6399 256c 0E94 0000 		call getvoxel
 6400 2570 282F      		mov r18,r24
 6401               	.LVL575:
 6402               	.LM647:
 6403 2572 F801      		movw r30,r16
 6404 2574 8181      		ldd r24,Z+1
 6405 2576 682F      		mov r22,r24
 6406 2578 70E0      		ldi r23,lo8(0)
 6407 257a 6F70      		andi r22,lo8(15)
 6408 257c 7070      		andi r23,hi8(15)
 6409 257e 8295      		swap r24
 6410 2580 8F70      		andi r24,lo8(15)
 6411 2582 90E0      		ldi r25,lo8(0)
 6412 2584 AE01      		movw r20,r28
 6413 2586 30E0      		ldi r19,lo8(0)
 6414 2588 0E94 0000 		call altervoxel
 6415               	.LVL576:
 6416               	.LM648:
 6417 258c 2196      		adiw r28,1
 6418 258e C830      		cpi r28,8
 6419 2590 D105      		cpc r29,__zero_reg__
 6420 2592 01F4      		brne .L499
 6421               	.LM649:
 6422 2594 0894      		sec
 6423 2596 E108      		sbc r14,__zero_reg__
 6424 2598 F108      		sbc r15,__zero_reg__
 6425 259a 0150      		subi r16,lo8(-(-1))
 6426 259c 1040      		sbci r17,hi8(-(-1))
 6427               	.LVL577:
 6428               	.L498:
 6429 259e 1E14      		cp __zero_reg__,r14
 6430 25a0 1F04      		cpc __zero_reg__,r15
 6431 25a2 04F0      		brlt .L500
 6432 25a4 C0E0      		ldi r28,lo8(0)
 6433 25a6 D0E0      		ldi r29,hi8(0)
 6434               	.LVL578:
 6435               	.L501:
 6436               	.LM650:
 6437 25a8 F601      		movw r30,r12
 6438 25aa 8081      		ld r24,Z
 6439               	.LVL579:
 6440 25ac 682F      		mov r22,r24
 6441               	.LVL580:
 6442 25ae 70E0      		ldi r23,lo8(0)
 6443 25b0 6F70      		andi r22,lo8(15)
 6444 25b2 7070      		andi r23,hi8(15)
 6445 25b4 8295      		swap r24
 6446 25b6 8F70      		andi r24,lo8(15)
 6447 25b8 90E0      		ldi r25,lo8(0)
 6448 25ba AE01      		movw r20,r28
 6449 25bc 0E94 0000 		call clrvoxel
 6450               	.LM651:
 6451 25c0 2196      		adiw r28,1
 6452 25c2 C830      		cpi r28,8
 6453 25c4 D105      		cpc r29,__zero_reg__
 6454 25c6 01F4      		brne .L501
 6455               	/* epilogue start */
 6456               	.LM652:
 6457 25c8 DF91      		pop r29
 6458 25ca CF91      		pop r28
 6459               	.LVL581:
 6460 25cc 1F91      		pop r17
 6461 25ce 0F91      		pop r16
 6462 25d0 FF90      		pop r15
 6463 25d2 EF90      		pop r14
 6464 25d4 DF90      		pop r13
 6465 25d6 CF90      		pop r12
 6466               	.LVL582:
 6467 25d8 0895      		ret
 6468               	.LFE21:
 6470               	.global	effect_random_filler
 6472               	effect_random_filler:
 6473               	.LFB7:
 6474               	.LM653:
 6475               	.LVL583:
 6476 25da 8F92      		push r8
 6477 25dc 9F92      		push r9
 6478 25de AF92      		push r10
 6479 25e0 BF92      		push r11
 6480 25e2 CF92      		push r12
 6481 25e4 DF92      		push r13
 6482 25e6 EF92      		push r14
 6483 25e8 FF92      		push r15
 6484 25ea 0F93      		push r16
 6485 25ec 1F93      		push r17
 6486 25ee CF93      		push r28
 6487 25f0 DF93      		push r29
 6488               	/* prologue: function */
 6489               	/* frame size = 0 */
 6490 25f2 4C01      		movw r8,r24
 6491 25f4 8B01      		movw r16,r22
 6492               	.LM654:
 6493 25f6 6130      		cpi r22,1
 6494 25f8 7105      		cpc r23,__zero_reg__
 6495 25fa 01F4      		brne .L506
 6496               	.LVL584:
 6497               	.LM655:
 6498 25fc 80E0      		ldi r24,lo8(0)
 6499 25fe 00C0      		rjmp .L514
 6500               	.LVL585:
 6501               	.L506:
 6502               	.LM656:
 6503 2600 8FEF      		ldi r24,lo8(-1)
 6504               	.L514:
 6505 2602 0E94 0000 		call fill
 6506               	.LVL586:
 6507 2606 C0E0      		ldi r28,lo8(0)
 6508 2608 D0E0      		ldi r29,hi8(0)
 6509               	.LVL587:
 6510               	.L512:
 6511               	.LM657:
 6512 260a 0E94 0000 		call rand
 6513 260e 68E0      		ldi r22,lo8(8)
 6514 2610 70E0      		ldi r23,hi8(8)
 6515 2612 0E94 0000 		call __divmodhi4
 6516 2616 B82E      		mov r11,r24
 6517 2618 A92E      		mov r10,r25
 6518               	.LM658:
 6519 261a 0E94 0000 		call rand
 6520 261e 68E0      		ldi r22,lo8(8)
 6521 2620 70E0      		ldi r23,hi8(8)
 6522 2622 0E94 0000 		call __divmodhi4
 6523 2626 D82E      		mov r13,r24
 6524 2628 C92E      		mov r12,r25
 6525               	.LM659:
 6526 262a 0E94 0000 		call rand
 6527 262e 68E0      		ldi r22,lo8(8)
 6528 2630 70E0      		ldi r23,hi8(8)
 6529 2632 0E94 0000 		call __divmodhi4
 6530 2636 F82E      		mov r15,r24
 6531 2638 E92E      		mov r14,r25
 6532               	.LM660:
 6533 263a 0115      		cp r16,__zero_reg__
 6534 263c 1105      		cpc r17,__zero_reg__
 6535 263e 01F4      		brne .L508
 6536 2640 8B2D      		mov r24,r11
 6537 2642 9A2D      		mov r25,r10
 6538 2644 6D2D      		mov r22,r13
 6539 2646 7C2D      		mov r23,r12
 6540 2648 4F2D      		mov r20,r15
 6541 264a 5E2D      		mov r21,r14
 6542 264c 0E94 0000 		call getvoxel
 6543 2650 8130      		cpi r24,lo8(1)
 6544 2652 01F4      		brne .L510
 6545 2654 00C0      		rjmp .L509
 6546               	.L508:
 6547 2656 0130      		cpi r16,1
 6548 2658 1105      		cpc r17,__zero_reg__
 6549 265a 01F4      		brne .L510
 6550 265c 8B2D      		mov r24,r11
 6551 265e 9A2D      		mov r25,r10
 6552 2660 6D2D      		mov r22,r13
 6553 2662 7C2D      		mov r23,r12
 6554 2664 4F2D      		mov r20,r15
 6555 2666 5E2D      		mov r21,r14
 6556 2668 0E94 0000 		call getvoxel
 6557 266c 8823      		tst r24
 6558 266e 01F4      		brne .L510
 6559               	.L509:
 6560               	.LM661:
 6561 2670 8B2D      		mov r24,r11
 6562 2672 9A2D      		mov r25,r10
 6563 2674 6D2D      		mov r22,r13
 6564 2676 7C2D      		mov r23,r12
 6565 2678 4F2D      		mov r20,r15
 6566 267a 5E2D      		mov r21,r14
 6567 267c 9801      		movw r18,r16
 6568 267e 0E94 0000 		call altervoxel
 6569               	.LM662:
 6570 2682 C401      		movw r24,r8
 6571 2684 0E94 0000 		call delay_ms
 6572               	.LM663:
 6573 2688 2196      		adiw r28,1
 6574               	.L510:
 6575               	.LM664:
 6576 268a 81E0      		ldi r24,hi8(511)
 6577 268c CF3F      		cpi r28,lo8(511)
 6578 268e D807      		cpc r29,r24
 6579 2690 04F4      		brge .+2
 6580 2692 00C0      		rjmp .L512
 6581               	/* epilogue start */
 6582               	.LM665:
 6583 2694 DF91      		pop r29
 6584 2696 CF91      		pop r28
 6585               	.LVL588:
 6586 2698 1F91      		pop r17
 6587 269a 0F91      		pop r16
 6588               	.LVL589:
 6589 269c FF90      		pop r15
 6590 269e EF90      		pop r14
 6591 26a0 DF90      		pop r13
 6592 26a2 CF90      		pop r12
 6593 26a4 BF90      		pop r11
 6594 26a6 AF90      		pop r10
 6595 26a8 9F90      		pop r9
 6596 26aa 8F90      		pop r8
 6597               	.LVL590:
 6598 26ac 0895      		ret
 6599               	.LFE7:
 6601               	.global	effect_path_text
 6603               	effect_path_text:
 6604               	.LFB25:
 6605               	.LM666:
 6606               	.LVL591:
 6607 26ae 2F92      		push r2
 6608 26b0 3F92      		push r3
 6609 26b2 4F92      		push r4
 6610 26b4 5F92      		push r5
 6611 26b6 6F92      		push r6
 6612 26b8 7F92      		push r7
 6613 26ba 8F92      		push r8
 6614 26bc 9F92      		push r9
 6615 26be AF92      		push r10
 6616 26c0 BF92      		push r11
 6617 26c2 CF92      		push r12
 6618 26c4 DF92      		push r13
 6619 26c6 EF92      		push r14
 6620 26c8 FF92      		push r15
 6621 26ca 0F93      		push r16
 6622 26cc 1F93      		push r17
 6623 26ce DF93      		push r29
 6624 26d0 CF93      		push r28
 6625 26d2 CDB7      		in r28,__SP_L__
 6626 26d4 DEB7      		in r29,__SP_H__
 6627 26d6 A197      		sbiw r28,33
 6628 26d8 0FB6      		in __tmp_reg__,__SREG__
 6629 26da F894      		cli
 6630 26dc DEBF      		out __SP_H__,r29
 6631 26de 0FBE      		out __SREG__,__tmp_reg__
 6632 26e0 CDBF      		out __SP_L__,r28
 6633               	/* prologue: function */
 6634               	/* frame size = 33 */
 6635 26e2 3C01      		movw r6,r24
 6636               	.LVL592:
 6637 26e4 6B01      		movw r12,r22
 6638               	.LM667:
 6639 26e6 A6E0      		ldi r26,lo8(6)
 6640 26e8 8A2E      		mov r8,r26
 6641 26ea 912C      		mov r9,__zero_reg__
 6642 26ec 8C0E      		add r8,r28
 6643 26ee 9D1E      		adc r9,r29
 6644 26f0 80E0      		ldi r24,lo8(0)
 6645 26f2 B401      		movw r22,r8
 6646               	.LVL593:
 6647 26f4 4CE1      		ldi r20,lo8(28)
 6648 26f6 50E0      		ldi r21,hi8(28)
 6649 26f8 0E94 0000 		call font_getpath
 6650               	.LM668:
 6651 26fc 1E01      		movw r2,r28
 6652 26fe 0894      		sec
 6653 2700 211C      		adc r2,__zero_reg__
 6654 2702 311C      		adc r3,__zero_reg__
 6655               	.LM669:
 6656 2704 2401      		movw r4,r8
 6657 2706 00C0      		rjmp .L516
 6658               	.LVL594:
 6659               	.L521:
 6660               	.LM670:
 6661 2708 B101      		movw r22,r2
 6662 270a 0E94 0000 		call font_getchar
 6663 270e 7101      		movw r14,r2
 6664               	.L520:
 6665               	.LM671:
 6666 2710 F701      		movw r30,r14
 6667 2712 8081      		ld r24,Z
 6668               	.LVL595:
 6669 2714 00E0      		ldi r16,lo8(0)
 6670 2716 10E0      		ldi r17,hi8(0)
 6671               	.LM672:
 6672 2718 A82E      		mov r10,r24
 6673 271a BB24      		clr r11
 6674               	.LVL596:
 6675               	.L519:
 6676 271c 87E0      		ldi r24,lo8(7)
 6677 271e 90E0      		ldi r25,hi8(7)
 6678 2720 801B      		sub r24,r16
 6679 2722 910B      		sbc r25,r17
 6680 2724 9501      		movw r18,r10
 6681 2726 00C0      		rjmp 2f
 6682 2728 3595      	1:	asr r19
 6683 272a 2795      		ror r18
 6684 272c 8A95      	2:	dec r24
 6685 272e 02F4      		brpl 1b
 6686 2730 20FF      		sbrs r18,0
 6687 2732 00C0      		rjmp .L517
 6688               	.LM673:
 6689 2734 80E0      		ldi r24,lo8(0)
 6690 2736 90E0      		ldi r25,hi8(0)
 6691 2738 67E0      		ldi r22,lo8(7)
 6692 273a 70E0      		ldi r23,hi8(7)
 6693 273c A801      		movw r20,r16
 6694 273e 0E94 0000 		call setvoxel
 6695 2742 00C0      		rjmp .L518
 6696               	.L517:
 6697               	.LM674:
 6698 2744 80E0      		ldi r24,lo8(0)
 6699 2746 90E0      		ldi r25,hi8(0)
 6700 2748 67E0      		ldi r22,lo8(7)
 6701 274a 70E0      		ldi r23,hi8(7)
 6702 274c A801      		movw r20,r16
 6703 274e 0E94 0000 		call clrvoxel
 6704               	.L518:
 6705               	.LM675:
 6706 2752 0F5F      		subi r16,lo8(-(1))
 6707 2754 1F4F      		sbci r17,hi8(-(1))
 6708 2756 0830      		cpi r16,8
 6709 2758 1105      		cpc r17,__zero_reg__
 6710 275a 01F4      		brne .L519
 6711               	.LM676:
 6712 275c C401      		movw r24,r8
 6713 275e 6CE1      		ldi r22,lo8(28)
 6714 2760 70E0      		ldi r23,hi8(28)
 6715 2762 0E94 0000 		call effect_pathmove
 6716               	.LM677:
 6717 2766 C301      		movw r24,r6
 6718 2768 0E94 0000 		call delay_ms
 6719 276c 0894      		sec
 6720 276e E11C      		adc r14,__zero_reg__
 6721 2770 F11C      		adc r15,__zero_reg__
 6722               	.LM678:
 6723 2772 E414      		cp r14,r4
 6724 2774 F504      		cpc r15,r5
 6725 2776 01F4      		brne .L520
 6726               	.LM679:
 6727 2778 0894      		sec
 6728 277a C11C      		adc r12,__zero_reg__
 6729 277c D11C      		adc r13,__zero_reg__
 6730               	.LM680:
 6731 277e C201      		movw r24,r4
 6732 2780 6CE1      		ldi r22,lo8(28)
 6733 2782 70E0      		ldi r23,hi8(28)
 6734 2784 0E94 0000 		call effect_pathmove
 6735               	.LM681:
 6736 2788 C301      		movw r24,r6
 6737 278a 0E94 0000 		call delay_ms
 6738               	.L516:
 6739               	.LM682:
 6740 278e F601      		movw r30,r12
 6741 2790 8081      		ld r24,Z
 6742 2792 8823      		tst r24
 6743 2794 01F0      		breq .+2
 6744 2796 00C0      		rjmp .L521
 6745 2798 00E0      		ldi r16,lo8(0)
 6746 279a 10E0      		ldi r17,hi8(0)
 6747               	.LVL597:
 6748               	.LM683:
 6749 279c F6E0      		ldi r31,lo8(6)
 6750 279e EF2E      		mov r14,r31
 6751 27a0 F12C      		mov r15,__zero_reg__
 6752 27a2 EC0E      		add r14,r28
 6753 27a4 FD1E      		adc r15,r29
 6754               	.L522:
 6755 27a6 C701      		movw r24,r14
 6756 27a8 6CE1      		ldi r22,lo8(28)
 6757 27aa 70E0      		ldi r23,hi8(28)
 6758 27ac 0E94 0000 		call effect_pathmove
 6759               	.LM684:
 6760 27b0 C301      		movw r24,r6
 6761 27b2 0E94 0000 		call delay_ms
 6762               	.LM685:
 6763 27b6 0F5F      		subi r16,lo8(-(1))
 6764 27b8 1F4F      		sbci r17,hi8(-(1))
 6765 27ba 0C31      		cpi r16,28
 6766 27bc 1105      		cpc r17,__zero_reg__
 6767 27be 01F4      		brne .L522
 6768               	/* epilogue start */
 6769               	.LM686:
 6770 27c0 A196      		adiw r28,33
 6771 27c2 0FB6      		in __tmp_reg__,__SREG__
 6772 27c4 F894      		cli
 6773 27c6 DEBF      		out __SP_H__,r29
 6774 27c8 0FBE      		out __SREG__,__tmp_reg__
 6775 27ca CDBF      		out __SP_L__,r28
 6776 27cc CF91      		pop r28
 6777 27ce DF91      		pop r29
 6778 27d0 1F91      		pop r17
 6779 27d2 0F91      		pop r16
 6780               	.LVL598:
 6781 27d4 FF90      		pop r15
 6782 27d6 EF90      		pop r14
 6783 27d8 DF90      		pop r13
 6784 27da CF90      		pop r12
 6785               	.LVL599:
 6786 27dc BF90      		pop r11
 6787               	.LVL600:
 6788 27de AF90      		pop r10
 6789               	.LVL601:
 6790 27e0 9F90      		pop r9
 6791 27e2 8F90      		pop r8
 6792 27e4 7F90      		pop r7
 6793 27e6 6F90      		pop r6
 6794 27e8 5F90      		pop r5
 6795 27ea 4F90      		pop r4
 6796 27ec 3F90      		pop r3
 6797 27ee 2F90      		pop r2
 6798 27f0 0895      		ret
 6799               	.LFE25:
 6801               	.global	effect_rand_patharound
 6803               	effect_rand_patharound:
 6804               	.LFB22:
 6805               	.LM687:
 6806               	.LVL602:
 6807 27f2 7F92      		push r7
 6808 27f4 8F92      		push r8
 6809 27f6 9F92      		push r9
 6810 27f8 AF92      		push r10
 6811 27fa BF92      		push r11
 6812 27fc CF92      		push r12
 6813 27fe DF92      		push r13
 6814 2800 EF92      		push r14
 6815 2802 FF92      		push r15
 6816 2804 0F93      		push r16
 6817 2806 1F93      		push r17
 6818 2808 DF93      		push r29
 6819 280a CF93      		push r28
 6820 280c CDB7      		in r28,__SP_L__
 6821 280e DEB7      		in r29,__SP_H__
 6822 2810 6C97      		sbiw r28,28
 6823 2812 0FB6      		in __tmp_reg__,__SREG__
 6824 2814 F894      		cli
 6825 2816 DEBF      		out __SP_H__,r29
 6826 2818 0FBE      		out __SREG__,__tmp_reg__
 6827 281a CDBF      		out __SP_L__,r28
 6828               	/* prologue: function */
 6829               	/* frame size = 28 */
 6830 281c 4C01      		movw r8,r24
 6831 281e 5B01      		movw r10,r22
 6832               	.LM688:
 6833 2820 80E0      		ldi r24,lo8(0)
 6834               	.LVL603:
 6835 2822 8E01      		movw r16,r28
 6836 2824 0F5F      		subi r16,lo8(-(1))
 6837 2826 1F4F      		sbci r17,hi8(-(1))
 6838 2828 B801      		movw r22,r16
 6839               	.LVL604:
 6840 282a 4CE1      		ldi r20,lo8(28)
 6841 282c 50E0      		ldi r21,hi8(28)
 6842 282e 0E94 0000 		call font_getpath
 6843 2832 84E0      		ldi r24,lo8(4)
 6844 2834 E82E      		mov r14,r24
 6845 2836 F12C      		mov r15,__zero_reg__
 6846               	.LVL605:
 6847 2838 CC24      		clr r12
 6848 283a DD24      		clr r13
 6849               	.LVL606:
 6850               	.LM689:
 6851 283c 702E      		mov r7,r16
 6852 283e 012F      		mov r16,r17
 6853 2840 00C0      		rjmp .L528
 6854               	.L531:
 6855               	.LM690:
 6856 2842 0E94 0000 		call rand
 6857 2846 0894      		sec
 6858 2848 E108      		sbc r14,__zero_reg__
 6859 284a F108      		sbc r15,__zero_reg__
 6860               	.LM691:
 6861 284c 63E0      		ldi r22,lo8(3)
 6862 284e 70E0      		ldi r23,hi8(3)
 6863 2850 0E94 0000 		call __divmodhi4
 6864 2854 E80E      		add r14,r24
 6865 2856 F91E      		adc r15,r25
 6866               	.LM692:
 6867 2858 88E0      		ldi r24,lo8(8)
 6868 285a E816      		cp r14,r24
 6869 285c F104      		cpc r15,__zero_reg__
 6870 285e 04F0      		brlt .L529
 6871 2860 B7E0      		ldi r27,lo8(7)
 6872 2862 EB2E      		mov r14,r27
 6873 2864 F12C      		mov r15,__zero_reg__
 6874 2866 00C0      		rjmp .L530
 6875               	.L529:
 6876               	.LM693:
 6877 2868 F7FE      		sbrs r15,7
 6878 286a 00C0      		rjmp .L530
 6879 286c EE24      		clr r14
 6880 286e FF24      		clr r15
 6881               	.L530:
 6882               	.LM694:
 6883 2870 872D      		mov r24,r7
 6884 2872 902F      		mov r25,r16
 6885 2874 6CE1      		ldi r22,lo8(28)
 6886 2876 70E0      		ldi r23,hi8(28)
 6887 2878 0E94 0000 		call effect_pathmove
 6888               	.LM695:
 6889 287c 80E0      		ldi r24,lo8(0)
 6890 287e 90E0      		ldi r25,hi8(0)
 6891 2880 67E0      		ldi r22,lo8(7)
 6892 2882 70E0      		ldi r23,hi8(7)
 6893 2884 A701      		movw r20,r14
 6894 2886 0E94 0000 		call setvoxel
 6895               	.LM696:
 6896 288a C501      		movw r24,r10
 6897 288c 0E94 0000 		call delay_ms
 6898               	.LM697:
 6899 2890 0894      		sec
 6900 2892 C11C      		adc r12,__zero_reg__
 6901 2894 D11C      		adc r13,__zero_reg__
 6902               	.L528:
 6903 2896 C814      		cp r12,r8
 6904 2898 D904      		cpc r13,r9
 6905 289a 04F0      		brlt .L531
 6906               	/* epilogue start */
 6907               	.LM698:
 6908 289c 6C96      		adiw r28,28
 6909 289e 0FB6      		in __tmp_reg__,__SREG__
 6910 28a0 F894      		cli
 6911 28a2 DEBF      		out __SP_H__,r29
 6912 28a4 0FBE      		out __SREG__,__tmp_reg__
 6913 28a6 CDBF      		out __SP_L__,r28
 6914 28a8 CF91      		pop r28
 6915 28aa DF91      		pop r29
 6916 28ac 1F91      		pop r17
 6917 28ae 0F91      		pop r16
 6918 28b0 FF90      		pop r15
 6919 28b2 EF90      		pop r14
 6920               	.LVL607:
 6921 28b4 DF90      		pop r13
 6922 28b6 CF90      		pop r12
 6923               	.LVL608:
 6924 28b8 BF90      		pop r11
 6925 28ba AF90      		pop r10
 6926               	.LVL609:
 6927 28bc 9F90      		pop r9
 6928 28be 8F90      		pop r8
 6929               	.LVL610:
 6930 28c0 7F90      		pop r7
 6931 28c2 0895      		ret
 6932               	.LFE22:
 6934               	.global	effect_pathspiral
 6936               	effect_pathspiral:
 6937               	.LFB20:
 6938               	.LM699:
 6939               	.LVL611:
 6940 28c4 9F92      		push r9
 6941 28c6 AF92      		push r10
 6942 28c8 BF92      		push r11
 6943 28ca CF92      		push r12
 6944 28cc DF92      		push r13
 6945 28ce EF92      		push r14
 6946 28d0 FF92      		push r15
 6947 28d2 0F93      		push r16
 6948 28d4 1F93      		push r17
 6949 28d6 DF93      		push r29
 6950 28d8 CF93      		push r28
 6951 28da CDB7      		in r28,__SP_L__
 6952 28dc DEB7      		in r29,__SP_H__
 6953 28de 6097      		sbiw r28,16
 6954 28e0 0FB6      		in __tmp_reg__,__SREG__
 6955 28e2 F894      		cli
 6956 28e4 DEBF      		out __SP_H__,r29
 6957 28e6 0FBE      		out __SREG__,__tmp_reg__
 6958 28e8 CDBF      		out __SP_L__,r28
 6959               	/* prologue: function */
 6960               	/* frame size = 16 */
 6961 28ea 5C01      		movw r10,r24
 6962 28ec 6B01      		movw r12,r22
 6963               	.LM700:
 6964 28ee 81E0      		ldi r24,lo8(1)
 6965               	.LVL612:
 6966 28f0 8E01      		movw r16,r28
 6967 28f2 0F5F      		subi r16,lo8(-(1))
 6968 28f4 1F4F      		sbci r17,hi8(-(1))
 6969 28f6 B801      		movw r22,r16
 6970               	.LVL613:
 6971 28f8 40E1      		ldi r20,lo8(16)
 6972 28fa 50E0      		ldi r21,hi8(16)
 6973 28fc 0E94 0000 		call font_getpath
 6974 2900 EE24      		clr r14
 6975 2902 FF24      		clr r15
 6976               	.LVL614:
 6977               	.LM701:
 6978 2904 902E      		mov r9,r16
 6979 2906 012F      		mov r16,r17
 6980 2908 00C0      		rjmp .L534
 6981               	.L535:
 6982               	.LM702:
 6983 290a A701      		movw r20,r14
 6984 290c 4770      		andi r20,lo8(7)
 6985 290e 5070      		andi r21,hi8(7)
 6986 2910 84E0      		ldi r24,lo8(4)
 6987 2912 90E0      		ldi r25,hi8(4)
 6988 2914 60E0      		ldi r22,lo8(0)
 6989 2916 70E0      		ldi r23,hi8(0)
 6990 2918 0E94 0000 		call setvoxel
 6991               	.LM703:
 6992 291c C601      		movw r24,r12
 6993 291e 0E94 0000 		call delay_ms
 6994               	.LM704:
 6995 2922 892D      		mov r24,r9
 6996 2924 902F      		mov r25,r16
 6997 2926 6CE1      		ldi r22,lo8(28)
 6998 2928 70E0      		ldi r23,hi8(28)
 6999 292a 0E94 0000 		call effect_pathmove
 7000               	.LM705:
 7001 292e 0894      		sec
 7002 2930 E11C      		adc r14,__zero_reg__
 7003 2932 F11C      		adc r15,__zero_reg__
 7004               	.L534:
 7005 2934 EA14      		cp r14,r10
 7006 2936 FB04      		cpc r15,r11
 7007 2938 04F0      		brlt .L535
 7008               	/* epilogue start */
 7009               	.LM706:
 7010 293a 6096      		adiw r28,16
 7011 293c 0FB6      		in __tmp_reg__,__SREG__
 7012 293e F894      		cli
 7013 2940 DEBF      		out __SP_H__,r29
 7014 2942 0FBE      		out __SREG__,__tmp_reg__
 7015 2944 CDBF      		out __SP_L__,r28
 7016 2946 CF91      		pop r28
 7017 2948 DF91      		pop r29
 7018 294a 1F91      		pop r17
 7019 294c 0F91      		pop r16
 7020 294e FF90      		pop r15
 7021 2950 EF90      		pop r14
 7022               	.LVL615:
 7023 2952 DF90      		pop r13
 7024 2954 CF90      		pop r12
 7025               	.LVL616:
 7026 2956 BF90      		pop r11
 7027 2958 AF90      		pop r10
 7028               	.LVL617:
 7029 295a 9F90      		pop r9
 7030 295c 0895      		ret
 7031               	.LFE20:
 7033               	.global	effect_planboing
 7035               	effect_planboing:
 7036               	.LFB14:
 7037               	.LM707:
 7038               	.LVL618:
 7039 295e EF92      		push r14
 7040 2960 FF92      		push r15
 7041 2962 0F93      		push r16
 7042 2964 1F93      		push r17
 7043               	/* prologue: function */
 7044               	/* frame size = 0 */
 7045 2966 E82E      		mov r14,r24
 7046 2968 F62E      		mov r15,r22
 7047 296a 072F      		mov r16,r23
 7048               	.LVL619:
 7049               	.LM708:
 7050 296c 10E0      		ldi r17,lo8(0)
 7051               	.LVL620:
 7052               	.L538:
 7053               	.LM709:
 7054 296e 80E0      		ldi r24,lo8(0)
 7055 2970 0E94 0000 		call fill
 7056               	.LM710:
 7057 2974 8E2D      		mov r24,r14
 7058 2976 612F      		mov r22,r17
 7059 2978 0E94 0000 		call setplane
 7060               	.LM711:
 7061 297c 8F2D      		mov r24,r15
 7062 297e 902F      		mov r25,r16
 7063 2980 0E94 0000 		call delay_ms
 7064 2984 1F5F      		subi r17,lo8(-(1))
 7065               	.LM712:
 7066 2986 1830      		cpi r17,lo8(8)
 7067 2988 01F4      		brne .L538
 7068 298a 17E0      		ldi r17,lo8(7)
 7069               	.L539:
 7070               	.LM713:
 7071 298c 80E0      		ldi r24,lo8(0)
 7072 298e 0E94 0000 		call fill
 7073               	.LM714:
 7074 2992 8E2D      		mov r24,r14
 7075 2994 612F      		mov r22,r17
 7076 2996 0E94 0000 		call setplane
 7077               	.LM715:
 7078 299a 8F2D      		mov r24,r15
 7079 299c 902F      		mov r25,r16
 7080 299e 0E94 0000 		call delay_ms
 7081 29a2 1150      		subi r17,1
 7082 29a4 00F4      		brcc .L539
 7083               	/* epilogue start */
 7084               	.LM716:
 7085 29a6 1F91      		pop r17
 7086 29a8 0F91      		pop r16
 7087               	.LVL621:
 7088 29aa FF90      		pop r15
 7089               	.LVL622:
 7090 29ac EF90      		pop r14
 7091               	.LVL623:
 7092 29ae 0895      		ret
 7093               	.LFE14:
 7095               	.global	effect_box_woopwoop
 7097               	effect_box_woopwoop:
 7098               	.LFB13:
 7099               	.LM717:
 7100               	.LVL624:
 7101 29b0 8F92      		push r8
 7102 29b2 9F92      		push r9
 7103 29b4 AF92      		push r10
 7104 29b6 BF92      		push r11
 7105 29b8 CF92      		push r12
 7106 29ba DF92      		push r13
 7107 29bc EF92      		push r14
 7108 29be FF92      		push r15
 7109 29c0 0F93      		push r16
 7110 29c2 1F93      		push r17
 7111 29c4 CF93      		push r28
 7112 29c6 DF93      		push r29
 7113               	/* prologue: function */
 7114               	/* frame size = 0 */
 7115 29c8 5C01      		movw r10,r24
 7116 29ca 6B01      		movw r12,r22
 7117               	.LM718:
 7118 29cc 80E0      		ldi r24,lo8(0)
 7119               	.LVL625:
 7120 29ce 0E94 0000 		call fill
 7121               	.LVL626:
 7122 29d2 C0E0      		ldi r28,lo8(0)
 7123 29d4 D0E0      		ldi r29,hi8(0)
 7124               	.LVL627:
 7125               	.LM719:
 7126 29d6 93E0      		ldi r25,lo8(3)
 7127 29d8 892E      		mov r8,r25
 7128 29da 912C      		mov r9,__zero_reg__
 7129               	.L546:
 7130 29dc 1C14      		cp __zero_reg__,r12
 7131 29de 1D04      		cpc __zero_reg__,r13
 7132 29e0 04F0      		brlt .L544
 7133 29e2 CE01      		movw r24,r28
 7134               	.LVL628:
 7135 29e4 00C0      		rjmp .L545
 7136               	.LVL629:
 7137               	.L544:
 7138 29e6 C401      		movw r24,r8
 7139               	.LVL630:
 7140 29e8 8C1B      		sub r24,r28
 7141 29ea 9D0B      		sbc r25,r29
 7142               	.L545:
 7143               	.LM720:
 7144 29ec AC01      		movw r20,r24
 7145 29ee 4C5F      		subi r20,lo8(-(4))
 7146 29f0 5F4F      		sbci r21,hi8(-(4))
 7147 29f2 7401      		movw r14,r8
 7148 29f4 E81A      		sub r14,r24
 7149 29f6 F90A      		sbc r15,r25
 7150 29f8 CA01      		movw r24,r20
 7151               	.LVL631:
 7152 29fa BA01      		movw r22,r20
 7153 29fc 9701      		movw r18,r14
 7154 29fe 8701      		movw r16,r14
 7155 2a00 0E94 0000 		call box_wireframe
 7156               	.LM721:
 7157 2a04 C501      		movw r24,r10
 7158 2a06 0E94 0000 		call delay_ms
 7159               	.LM722:
 7160 2a0a 80E0      		ldi r24,lo8(0)
 7161 2a0c 0E94 0000 		call fill
 7162               	.LM723:
 7163 2a10 2196      		adiw r28,1
 7164 2a12 C430      		cpi r28,4
 7165 2a14 D105      		cpc r29,__zero_reg__
 7166 2a16 01F4      		brne .L546
 7167               	/* epilogue start */
 7168               	.LM724:
 7169 2a18 DF91      		pop r29
 7170 2a1a CF91      		pop r28
 7171               	.LVL632:
 7172 2a1c 1F91      		pop r17
 7173 2a1e 0F91      		pop r16
 7174 2a20 FF90      		pop r15
 7175 2a22 EF90      		pop r14
 7176 2a24 DF90      		pop r13
 7177 2a26 CF90      		pop r12
 7178               	.LVL633:
 7179 2a28 BF90      		pop r11
 7180 2a2a AF90      		pop r10
 7181               	.LVL634:
 7182 2a2c 9F90      		pop r9
 7183 2a2e 8F90      		pop r8
 7184 2a30 0895      		ret
 7185               	.LFE13:
 7187               	.global	effect_box_shrink_grow
 7189               	effect_box_shrink_grow:
 7190               	.LFB12:
 7191               	.LM725:
 7192               	.LVL635:
 7193 2a32 2F92      		push r2
 7194 2a34 3F92      		push r3
 7195 2a36 4F92      		push r4
 7196 2a38 5F92      		push r5
 7197 2a3a 6F92      		push r6
 7198 2a3c 7F92      		push r7
 7199 2a3e 8F92      		push r8
 7200 2a40 9F92      		push r9
 7201 2a42 AF92      		push r10
 7202 2a44 BF92      		push r11
 7203 2a46 CF92      		push r12
 7204 2a48 DF92      		push r13
 7205 2a4a EF92      		push r14
 7206 2a4c FF92      		push r15
 7207 2a4e 0F93      		push r16
 7208 2a50 1F93      		push r17
 7209 2a52 DF93      		push r29
 7210 2a54 CF93      		push r28
 7211 2a56 00D0      		rcall .
 7212 2a58 CDB7      		in r28,__SP_L__
 7213 2a5a DEB7      		in r29,__SP_H__
 7214               	/* prologue: function */
 7215               	/* frame size = 2 */
 7216 2a5c 9A83      		std Y+2,r25
 7217 2a5e 8983      		std Y+1,r24
 7218 2a60 4B01      		movw r8,r22
 7219 2a62 1A01      		movw r2,r20
 7220 2a64 2901      		movw r4,r18
 7221               	.LM726:
 7222 2a66 AA24      		clr r10
 7223 2a68 BB24      		clr r11
 7224               	.LVL636:
 7225               	.LM727:
 7226 2a6a 4EEF      		ldi r20,lo8(-2)
 7227 2a6c 642E      		mov r6,r20
 7228 2a6e 4FEF      		ldi r20,hi8(-2)
 7229 2a70 742E      		mov r7,r20
 7230               	.LVL637:
 7231 2a72 660E      		add r6,r22
 7232 2a74 771E      		adc r7,r23
 7233 2a76 00C0      		rjmp .L550
 7234               	.LVL638:
 7235               	.L558:
 7236               	.LM728:
 7237 2a78 CC24      		clr r12
 7238 2a7a DD24      		clr r13
 7239               	.L557:
 7240               	.LM729:
 7241 2a7c 88E0      		ldi r24,lo8(8)
 7242 2a7e C816      		cp r12,r24
 7243 2a80 D104      		cpc r13,__zero_reg__
 7244 2a82 04F4      		brge .L551
 7245 2a84 37E0      		ldi r19,lo8(7)
 7246 2a86 E32E      		mov r14,r19
 7247 2a88 F12C      		mov r15,__zero_reg__
 7248 2a8a EC18      		sub r14,r12
 7249 2a8c FD08      		sbc r15,r13
 7250 2a8e 00C0      		rjmp .L552
 7251               	.L551:
 7252 2a90 28EF      		ldi r18,lo8(-8)
 7253 2a92 E22E      		mov r14,r18
 7254 2a94 2FEF      		ldi r18,hi8(-8)
 7255 2a96 F22E      		mov r15,r18
 7256 2a98 EC0C      		add r14,r12
 7257 2a9a FD1C      		adc r15,r13
 7258               	.LVL639:
 7259               	.L552:
 7260               	.LM730:
 7261 2a9c 80E0      		ldi r24,lo8(0)
 7262 2a9e 0E94 0000 		call fill
 7263               	.LVL640:
 7264 2aa2 81E0      		ldi r24,lo8(1)
 7265 2aa4 90E0      		ldi r25,hi8(1)
 7266 2aa6 0E94 0000 		call delay_ms
 7267               	.LM731:
 7268               	/* #APP */
 7269               	 ;  221 "effect.c" 1
 7270 2aaa F894      		cli
 7271               	 ;  0 "" 2
 7272               	.LM732:
 7273               	/* #NOAPP */
 7274 2aac 80E0      		ldi r24,lo8(0)
 7275 2aae 90E0      		ldi r25,hi8(0)
 7276 2ab0 60E0      		ldi r22,lo8(0)
 7277 2ab2 70E0      		ldi r23,hi8(0)
 7278 2ab4 40E0      		ldi r20,lo8(0)
 7279 2ab6 50E0      		ldi r21,hi8(0)
 7280 2ab8 9701      		movw r18,r14
 7281 2aba 8701      		movw r16,r14
 7282 2abc 0E94 0000 		call box_wireframe
 7283               	.LM733:
 7284 2ac0 1214      		cp __zero_reg__,r2
 7285 2ac2 1304      		cpc __zero_reg__,r3
 7286 2ac4 04F4      		brge .L553
 7287               	.LM734:
 7288 2ac6 0E94 0000 		call mirror_z
 7289               	.L553:
 7290               	.LM735:
 7291 2aca 91E0      		ldi r25,lo8(1)
 7292 2acc 8916      		cp r8,r25
 7293 2ace 9104      		cpc r9,__zero_reg__
 7294 2ad0 01F0      		breq .L554
 7295 2ad2 E3E0      		ldi r30,lo8(3)
 7296 2ad4 8E16      		cp r8,r30
 7297 2ad6 9104      		cpc r9,__zero_reg__
 7298 2ad8 01F4      		brne .L555
 7299               	.L554:
 7300               	.LM736:
 7301 2ada 0E94 0000 		call mirror_y
 7302               	.L555:
 7303               	.LM737:
 7304 2ade F2E0      		ldi r31,lo8(2)
 7305 2ae0 6F16      		cp r6,r31
 7306 2ae2 7104      		cpc r7,__zero_reg__
 7307 2ae4 00F4      		brsh .L556
 7308               	.LM738:
 7309 2ae6 0E94 0000 		call mirror_x
 7310               	.L556:
 7311               	.LM739:
 7312               	/* #APP */
 7313               	 ;  233 "effect.c" 1
 7314 2aea 7894      		sei
 7315               	 ;  0 "" 2
 7316               	.LM740:
 7317               	/* #NOAPP */
 7318 2aec C201      		movw r24,r4
 7319 2aee 0E94 0000 		call delay_ms
 7320               	.LM741:
 7321 2af2 80E0      		ldi r24,lo8(0)
 7322 2af4 0E94 0000 		call fill
 7323               	.LM742:
 7324 2af8 0894      		sec
 7325 2afa C11C      		adc r12,__zero_reg__
 7326 2afc D11C      		adc r13,__zero_reg__
 7327 2afe 80E1      		ldi r24,lo8(16)
 7328 2b00 C816      		cp r12,r24
 7329 2b02 D104      		cpc r13,__zero_reg__
 7330 2b04 01F0      		breq .+2
 7331 2b06 00C0      		rjmp .L557
 7332               	.LM743:
 7333 2b08 0894      		sec
 7334 2b0a A11C      		adc r10,__zero_reg__
 7335 2b0c B11C      		adc r11,__zero_reg__
 7336               	.LVL641:
 7337               	.L550:
 7338 2b0e E981      		ldd r30,Y+1
 7339 2b10 FA81      		ldd r31,Y+2
 7340 2b12 AE16      		cp r10,r30
 7341 2b14 BF06      		cpc r11,r31
 7342 2b16 04F4      		brge .+2
 7343 2b18 00C0      		rjmp .L558
 7344               	/* epilogue start */
 7345               	.LM744:
 7346 2b1a 0F90      		pop __tmp_reg__
 7347 2b1c 0F90      		pop __tmp_reg__
 7348 2b1e CF91      		pop r28
 7349 2b20 DF91      		pop r29
 7350 2b22 1F91      		pop r17
 7351 2b24 0F91      		pop r16
 7352 2b26 FF90      		pop r15
 7353 2b28 EF90      		pop r14
 7354               	.LVL642:
 7355 2b2a DF90      		pop r13
 7356 2b2c CF90      		pop r12
 7357               	.LVL643:
 7358 2b2e BF90      		pop r11
 7359 2b30 AF90      		pop r10
 7360               	.LVL644:
 7361 2b32 9F90      		pop r9
 7362 2b34 8F90      		pop r8
 7363               	.LVL645:
 7364 2b36 7F90      		pop r7
 7365 2b38 6F90      		pop r6
 7366 2b3a 5F90      		pop r5
 7367 2b3c 4F90      		pop r4
 7368               	.LVL646:
 7369 2b3e 3F90      		pop r3
 7370 2b40 2F90      		pop r2
 7371               	.LVL647:
 7372 2b42 0895      		ret
 7373               	.LFE12:
 7375               		.comm cube,64,1
 7376               		.comm fb,64,1
 7681               	.Letext0:
DEFINED SYMBOLS
                            *ABS*:00000000 effect.c
C:\DOCUME~1\ASUS\LOCALS~1\Temp/ccLbtK1X.s:2      *ABS*:0000003f __SREG__
C:\DOCUME~1\ASUS\LOCALS~1\Temp/ccLbtK1X.s:3      *ABS*:0000003e __SP_H__
C:\DOCUME~1\ASUS\LOCALS~1\Temp/ccLbtK1X.s:4      *ABS*:0000003d __SP_L__
C:\DOCUME~1\ASUS\LOCALS~1\Temp/ccLbtK1X.s:5      *ABS*:00000034 __CCP__
C:\DOCUME~1\ASUS\LOCALS~1\Temp/ccLbtK1X.s:6      *ABS*:00000000 __tmp_reg__
C:\DOCUME~1\ASUS\LOCALS~1\Temp/ccLbtK1X.s:7      *ABS*:00000001 __zero_reg__
C:\DOCUME~1\ASUS\LOCALS~1\Temp/ccLbtK1X.s:18     .text:00000000 effect_loadbar
                            *COM*:00000040 cube
C:\DOCUME~1\ASUS\LOCALS~1\Temp/ccLbtK1X.s:148    .text:000000ae effect_telcstairs_do
C:\DOCUME~1\ASUS\LOCALS~1\Temp/ccLbtK1X.s:211    .text:000000f8 effect_telcstairs
C:\DOCUME~1\ASUS\LOCALS~1\Temp/ccLbtK1X.s:273    .text:0000013a effect_blinky2
C:\DOCUME~1\ASUS\LOCALS~1\Temp/ccLbtK1X.s:356    .text:000001b6 drawSnake.2831
C:\DOCUME~1\ASUS\LOCALS~1\Temp/ccLbtK1X.s:452    .text:0000024c snakeFillAndMove.2840
C:\DOCUME~1\ASUS\LOCALS~1\Temp/ccLbtK1X.s:928    .text:00000568 snake
C:\DOCUME~1\ASUS\LOCALS~1\Temp/ccLbtK1X.s:1150   .text:000006d8 diagonal_triangle
C:\DOCUME~1\ASUS\LOCALS~1\Temp/ccLbtK1X.s:1403   .text:00000866 fireworks
C:\DOCUME~1\ASUS\LOCALS~1\Temp/ccLbtK1X.s:1820   .text:00000adc effect_random_sparkle_flash
C:\DOCUME~1\ASUS\LOCALS~1\Temp/ccLbtK1X.s:1927   .text:00000b86 effect_random_sparkle
C:\DOCUME~1\ASUS\LOCALS~1\Temp/ccLbtK1X.s:1981   .text:00000bc8 draw_positions_axis
C:\DOCUME~1\ASUS\LOCALS~1\Temp/ccLbtK1X.s:2135   .text:00000c9c effect_boxside_randsend_parallel
C:\DOCUME~1\ASUS\LOCALS~1\Temp/ccLbtK1X.s:2374   .text:00000e08 effect_axis_updown_randsuspend
C:\DOCUME~1\ASUS\LOCALS~1\Temp/ccLbtK1X.s:2607   .text:00000f72 effect_z_updown_move
C:\DOCUME~1\ASUS\LOCALS~1\Temp/ccLbtK1X.s:2663   .text:00000fb0 effect_z_updown
C:\DOCUME~1\ASUS\LOCALS~1\Temp/ccLbtK1X.s:2887   .text:0000111c walk_through_walls
C:\DOCUME~1\ASUS\LOCALS~1\Temp/ccLbtK1X.s:3139   .text:00001284 filled_box_draw
C:\DOCUME~1\ASUS\LOCALS~1\Temp/ccLbtK1X.s:3265   .text:00001324 moving_boxes
C:\DOCUME~1\ASUS\LOCALS~1\Temp/ccLbtK1X.s:3924   .text:000016de border_box
C:\DOCUME~1\ASUS\LOCALS~1\Temp/ccLbtK1X.s:4452   .text:00001a28 sendvoxel_z
C:\DOCUME~1\ASUS\LOCALS~1\Temp/ccLbtK1X.s:4560   .text:00001ac6 sendvoxels_rand_z
C:\DOCUME~1\ASUS\LOCALS~1\Temp/ccLbtK1X.s:4724   .text:00001bb6 effect_rain
C:\DOCUME~1\ASUS\LOCALS~1\Temp/ccLbtK1X.s:4833   .text:00001c5c bomb
C:\DOCUME~1\ASUS\LOCALS~1\Temp/ccLbtK1X.s:4963   .text:00001d26 crazy_straw
C:\DOCUME~1\ASUS\LOCALS~1\Temp/ccLbtK1X.s:5352   .text:00001f2e planes_exchange
C:\DOCUME~1\ASUS\LOCALS~1\Temp/ccLbtK1X.s:5760   .text:000021a4 planes_in_order
C:\DOCUME~1\ASUS\LOCALS~1\Temp/ccLbtK1X.s:5999   .text:0000230c effect_stringfly2
C:\DOCUME~1\ASUS\LOCALS~1\Temp/ccLbtK1X.s:6353   .text:0000252e effect_pathmove
C:\DOCUME~1\ASUS\LOCALS~1\Temp/ccLbtK1X.s:6472   .text:000025da effect_random_filler
C:\DOCUME~1\ASUS\LOCALS~1\Temp/ccLbtK1X.s:6603   .text:000026ae effect_path_text
C:\DOCUME~1\ASUS\LOCALS~1\Temp/ccLbtK1X.s:6803   .text:000027f2 effect_rand_patharound
C:\DOCUME~1\ASUS\LOCALS~1\Temp/ccLbtK1X.s:6936   .text:000028c4 effect_pathspiral
C:\DOCUME~1\ASUS\LOCALS~1\Temp/ccLbtK1X.s:7035   .text:0000295e effect_planboing
C:\DOCUME~1\ASUS\LOCALS~1\Temp/ccLbtK1X.s:7097   .text:000029b0 effect_box_woopwoop
C:\DOCUME~1\ASUS\LOCALS~1\Temp/ccLbtK1X.s:7189   .text:00002a32 effect_box_shrink_grow
                            *COM*:00000040 fb

UNDEFINED SYMBOLS
fill
delay_ms
__divmodhi4
setvoxel
inrange
getvoxel
rand
clrvoxel
shift
drawCircle
line
setplane_x
setplane_y
setplane_z
clrplane_x
clrplane_y
clrplane_z
font_getchar
altervoxel
font_getpath
setplane
box_wireframe
mirror_z
mirror_y
mirror_x
__do_clear_bss
